---
triple:          'arm64-apple-darwin'
binary-path:     '/Users/mac/BPE-algorithm-1/merge'
relocations:
  - { offsetInCU: 0x3F, offset: 0x3F, size: 0x8, addend: 0x0, symName: _merges, symObjAddr: 0xB4A70, symBinAddr: 0x10001C000, symSize: 0x0 }
  - { offsetInCU: 0x41F3, offset: 0x41F3, size: 0x8, addend: 0x0, symName: __ZNSt3__1L19piecewise_constructE, symObjAddr: 0x138FA, symBinAddr: 0x1000173AE, symSize: 0x0 }
  - { offsetInCU: 0x9105, offset: 0x9105, size: 0x8, addend: 0x0, symName: __ZNSt3__124__put_character_sequenceB8ue170006IcNS_11char_traitsIcEEEERNS_13basic_ostreamIT_T0_EES7_PKS4_m, symObjAddr: 0x618C, symBinAddr: 0x1000097EC, symSize: 0x1EC }
  - { offsetInCU: 0xFD26, offset: 0xFD26, size: 0x8, addend: 0x0, symName: __ZNSt3__111__introsortINS_17_ClassicAlgPolicyERPFbRKNS_4pairINS2_INS_6vectorIhNS_9allocatorIhEEEES6_EEiEESA_EPS8_Lb0EEEvT1_SF_T0_NS_15iterator_traitsISF_E15difference_typeEb, symObjAddr: 0xE114, symBinAddr: 0x100011774, symSize: 0x478 }
  - { offsetInCU: 0xFE51, offset: 0xFE51, size: 0x8, addend: 0x0, symName: __ZNSt3__126__insertion_sort_unguardedB8ue170006INS_17_ClassicAlgPolicyERPFbRKNS_4pairINS2_INS_6vectorIhNS_9allocatorIhEEEES6_EEiEESA_EPS8_EEvT1_SF_T0_, symObjAddr: 0xE85C, symBinAddr: 0x100011EBC, symSize: 0x16C }
  - { offsetInCU: 0xFF29, offset: 0xFF29, size: 0x8, addend: 0x0, symName: __ZNSt3__111__sift_downB8ue170006INS_17_ClassicAlgPolicyERPFbRKNS_4pairINS2_INS_6vectorIhNS_9allocatorIhEEEES6_EEiEESA_EPS8_EEvT1_OT0_NS_15iterator_traitsISF_E15difference_typeESF_, symObjAddr: 0x102C0, symBinAddr: 0x100013920, symSize: 0x27C }
  - { offsetInCU: 0xFFD6, offset: 0xFFD6, size: 0x8, addend: 0x0, symName: __ZNSt3__117__floyd_sift_downB8ue170006INS_17_ClassicAlgPolicyERPFbRKNS_4pairINS2_INS_6vectorIhNS_9allocatorIhEEEES6_EEiEESA_EPS8_EET1_SF_OT0_NS_15iterator_traitsISF_E15difference_typeE, symObjAddr: 0x1071C, symBinAddr: 0x100013D7C, symSize: 0x10C }
  - { offsetInCU: 0x1006E, offset: 0x1006E, size: 0x8, addend: 0x0, symName: __ZNSt3__131__partition_with_equals_on_leftB8ue170006INS_17_ClassicAlgPolicyEPNS_4pairINS2_INS_6vectorIhNS_9allocatorIhEEEES6_EEiEERPFbRKS8_SB_EEET0_SF_SF_T1_, symObjAddr: 0xEBE8, symBinAddr: 0x100012248, symSize: 0x2B0 }
  - { offsetInCU: 0x1012B, offset: 0x1012B, size: 0x8, addend: 0x0, symName: __ZNSt3__118__bitset_partitionB8ue170006INS_17_ClassicAlgPolicyEPNS_4pairINS2_INS_6vectorIhNS_9allocatorIhEEEES6_EEiEERPFbRKS8_SB_EEENS2_IT0_bEESF_SF_T1_, symObjAddr: 0xEE98, symBinAddr: 0x1000124F8, symSize: 0x3C4 }
  - { offsetInCU: 0x10228, offset: 0x10228, size: 0x8, addend: 0x0, symName: __ZNSt3__124__swap_bitmap_pos_withinB8ue170006INS_17_ClassicAlgPolicyEPNS_4pairINS2_INS_6vectorIhNS_9allocatorIhEEEES6_EEiEEEEvRT0_SB_RySC_, symObjAddr: 0x10EEC, symBinAddr: 0x10001454C, symSize: 0x1E8 }
  - { offsetInCU: 0x102F5, offset: 0x102F5, size: 0x8, addend: 0x0, symName: __ZNSt3__132__partition_with_equals_on_rightB8ue170006INS_17_ClassicAlgPolicyEPNS_4pairINS2_INS_6vectorIhNS_9allocatorIhEEEES6_EEiEERPFbRKS8_SB_EEENS2_IT0_bEESF_SF_T1_, symObjAddr: 0xF25C, symBinAddr: 0x1000128BC, symSize: 0x2B0 }
  - { offsetInCU: 0x103C1, offset: 0x103C1, size: 0x8, addend: 0x0, symName: __ZNSt3__127__insertion_sort_incompleteB8ue170006INS_17_ClassicAlgPolicyERPFbRKNS_4pairINS2_INS_6vectorIhNS_9allocatorIhEEEES6_EEiEESA_EPS8_EEbT1_SF_T0_, symObjAddr: 0xF50C, symBinAddr: 0x100012B6C, symSize: 0x378 }
  - { offsetInCU: 0x109DB, offset: 0x109DB, size: 0x8, addend: 0x0, symName: __ZNSt3__17advanceB8ue170006IPhllvEEvRT_T0_, symObjAddr: 0x1290C, symBinAddr: 0x100015F6C, symSize: 0x38 }
  - { offsetInCU: 0x11953, offset: 0x11953, size: 0x8, addend: 0x0, symName: __ZNSt3__1neB8ue170006IPNS_6vectorIhNS_9allocatorIhEEEEEEbRKNS_11__wrap_iterIT_EESA_, symObjAddr: 0x978, symBinAddr: 0x100003FD8, symSize: 0x34 }
  - { offsetInCU: 0x11996, offset: 0x11996, size: 0x8, addend: 0x0, symName: __ZNSt3__14endlB8ue170006IcNS_11char_traitsIcEEEERNS_13basic_ostreamIT_T0_EES7_, symObjAddr: 0xB10, symBinAddr: 0x100004170, symSize: 0x58 }
  - { offsetInCU: 0x119D6, offset: 0x119D6, size: 0x8, addend: 0x0, symName: __ZNSt3__1lsB8ue170006INS_11char_traitsIcEEEERNS_13basic_ostreamIcT_EES6_c, symObjAddr: 0xEA0, symBinAddr: 0x100004500, symSize: 0x34 }
  - { offsetInCU: 0x11A1C, offset: 0x11A1C, size: 0x8, addend: 0x0, symName: __ZNSt3__1lsB8ue170006INS_11char_traitsIcEEEERNS_13basic_ostreamIcT_EES6_PKc, symObjAddr: 0xED4, symBinAddr: 0x100004534, symSize: 0x48 }
  - { offsetInCU: 0x11A62, offset: 0x11A62, size: 0x8, addend: 0x0, symName: __ZNSt3__1eqB8ue170006IhNS_9allocatorIhEEEEbRKNS_6vectorIT_T0_EES8_, symObjAddr: 0x1724, symBinAddr: 0x100004D84, symSize: 0x9C }
  - { offsetInCU: 0x11AC0, offset: 0x11AC0, size: 0x8, addend: 0x0, symName: __ZNSt3__1lsB8ue170006INS_11char_traitsIcEEEERNS_13basic_ostreamIcT_EES6_h, symObjAddr: 0x18A4, symBinAddr: 0x100004F04, symSize: 0x34 }
  - { offsetInCU: 0x11B06, offset: 0x11B06, size: 0x8, addend: 0x0, symName: __ZNSt3__1neB8ue170006IPKNS_4pairINS_6vectorIhNS_9allocatorIhEEEES5_EEEEbRKNS_11__wrap_iterIT_EESD_, symObjAddr: 0x19E4, symBinAddr: 0x100005044, symSize: 0x34 }
  - { offsetInCU: 0x11B49, offset: 0x11B49, size: 0x8, addend: 0x0, symName: __ZNSt3__14sortB8ue170006INS_11__wrap_iterIPNS_4pairINS2_INS_6vectorIhNS_9allocatorIhEEEES6_EEiEEEEPFbRKS8_SC_EEEvT_SF_T0_, symObjAddr: 0x1B7C, symBinAddr: 0x1000051DC, symSize: 0x48 }
  - { offsetInCU: 0x11BA3, offset: 0x11BA3, size: 0x8, addend: 0x0, symName: __ZNSt3__1neB8ue170006IPNS_4pairINS1_INS_6vectorIhNS_9allocatorIhEEEES5_EEiEEEEbRKNS_11__wrap_iterIT_EESD_, symObjAddr: 0x1C24, symBinAddr: 0x100005284, symSize: 0x34 }
  - { offsetInCU: 0x11BE6, offset: 0x11BE6, size: 0x8, addend: 0x0, symName: __ZNSt3__1lsB8ue170006IcNS_11char_traitsIcEENS_9allocatorIcEEEERNS_13basic_ostreamIT_T0_EES9_RKNS_12basic_stringIS6_S7_T1_EE, symObjAddr: 0x2200, symBinAddr: 0x100005860, symSize: 0x4C }
  - { offsetInCU: 0x11C3E, offset: 0x11C3E, size: 0x8, addend: 0x0, symName: __ZNSt3__17getlineB8ue170006IcNS_11char_traitsIcEENS_9allocatorIcEEEERNS_13basic_istreamIT_T0_EES9_RNS_12basic_stringIS6_S7_T1_EE, symObjAddr: 0x2278, symBinAddr: 0x1000058D8, symSize: 0x5C }
  - { offsetInCU: 0x11E97, offset: 0x11E97, size: 0x8, addend: 0x0, symName: __ZNSt3__1eqB8ue170006IPNS_6vectorIhNS_9allocatorIhEEEEEEbRKNS_11__wrap_iterIT_EESA_, symObjAddr: 0x22E8, symBinAddr: 0x100005948, symSize: 0x48 }
  - { offsetInCU: 0x11EDA, offset: 0x11EDA, size: 0x8, addend: 0x0, symName: __ZNSt3__1eqB8ue170006IPKNS_4pairINS_6vectorIhNS_9allocatorIhEEEES5_EEEEbRKNS_11__wrap_iterIT_EESD_, symObjAddr: 0x23F0, symBinAddr: 0x100005A50, symSize: 0x48 }
  - { offsetInCU: 0x11F1D, offset: 0x11F1D, size: 0x8, addend: 0x0, symName: __ZNSt3__1eqB8ue170006IPNS_4pairINS1_INS_6vectorIhNS_9allocatorIhEEEES5_EEiEEEEbRKNS_11__wrap_iterIT_EESD_, symObjAddr: 0x2450, symBinAddr: 0x100005AB0, symSize: 0x48 }
  - { offsetInCU: 0x11F93, offset: 0x11F93, size: 0x8, addend: 0x0, symName: __ZNSt3__119__libcpp_deallocateB8ue170006EPvmm, symObjAddr: 0x2BA8, symBinAddr: 0x100006208, symSize: 0x30 }
  - { offsetInCU: 0x11FDB, offset: 0x11FDB, size: 0x8, addend: 0x0, symName: __ZNSt3__127__do_deallocate_handle_sizeB8ue170006IJEEEvPvmDpT_, symObjAddr: 0x2BD8, symBinAddr: 0x100006238, symSize: 0x28 }
  - { offsetInCU: 0x12019, offset: 0x12019, size: 0x8, addend: 0x0, symName: __ZNSt3__124__libcpp_operator_deleteB8ue170006IJPvEEEvDpT_, symObjAddr: 0x2C00, symBinAddr: 0x100006260, symSize: 0x24 }
  - { offsetInCU: 0x1204E, offset: 0x1204E, size: 0x8, addend: 0x0, symName: __ZNSt3__118__constexpr_strlenB8ue170006EPKc, symObjAddr: 0x2E0C, symBinAddr: 0x10000646C, symSize: 0x24 }
  - { offsetInCU: 0x1207A, offset: 0x1207A, size: 0x8, addend: 0x0, symName: __ZNSt3__112__to_addressB8ue170006INS_6vectorIhNS_9allocatorIhEEEEEEPT_S6_, symObjAddr: 0x3418, symBinAddr: 0x100006A78, symSize: 0x14 }
  - { offsetInCU: 0x120E2, offset: 0x120E2, size: 0x8, addend: 0x0, symName: __ZNSt3__112__to_addressB8ue170006IhEEPT_S2_, symObjAddr: 0x39BC, symBinAddr: 0x10000701C, symSize: 0x14 }
  - { offsetInCU: 0x12117, offset: 0x12117, size: 0x8, addend: 0x0, symName: __ZNSt3__13maxB8ue170006ImEERKT_S3_S3_, symObjAddr: 0x42C0, symBinAddr: 0x100007920, symSize: 0x2C }
  - { offsetInCU: 0x1215A, offset: 0x1215A, size: 0x8, addend: 0x0, symName: __ZNSt3__13minB8ue170006ImEERKT_S3_S3_, symObjAddr: 0x42EC, symBinAddr: 0x10000794C, symSize: 0x2C }
  - { offsetInCU: 0x1219D, offset: 0x1219D, size: 0x8, addend: 0x0, symName: __ZNSt3__13minB8ue170006ImNS_6__lessIvvEEEERKT_S5_S5_T0_, symObjAddr: 0x4364, symBinAddr: 0x1000079C4, symSize: 0x54 }
  - { offsetInCU: 0x1226D, offset: 0x1226D, size: 0x8, addend: 0x0, symName: __ZNSt3__120__throw_length_errorB8ue170006EPKc, symObjAddr: 0x443C, symBinAddr: 0x100007A9C, symSize: 0x64 }
  - { offsetInCU: 0x12297, offset: 0x12297, size: 0x8, addend: 0x0, symName: __ZNSt3__13maxB8ue170006ImNS_6__lessIvvEEEERKT_S5_S5_T0_, symObjAddr: 0x4520, symBinAddr: 0x100007B80, symSize: 0x54 }
  - { offsetInCU: 0x122F1, offset: 0x122F1, size: 0x8, addend: 0x0, symName: __ZNSt3__119__allocate_at_leastB8ue170006INS_9allocatorINS_6vectorIhNS1_IhEEEEEEEENS_19__allocation_resultINS_16allocator_traitsIT_E7pointerEEERS8_m, symObjAddr: 0x4690, symBinAddr: 0x100007CF0, symSize: 0x40 }
  - { offsetInCU: 0x12334, offset: 0x12334, size: 0x8, addend: 0x0, symName: __ZNSt3__117__libcpp_allocateB8ue170006Emm, symObjAddr: 0x4818, symBinAddr: 0x100007E78, symSize: 0x28 }
  - { offsetInCU: 0x12371, offset: 0x12371, size: 0x8, addend: 0x0, symName: __ZNSt3__121__libcpp_operator_newB8ue170006IJmEEEPvDpT_, symObjAddr: 0x4840, symBinAddr: 0x100007EA0, symSize: 0x24 }
  - { offsetInCU: 0x123AA, offset: 0x123AA, size: 0x8, addend: 0x0, symName: __ZNSt3__142__uninitialized_allocator_move_if_noexceptB8ue170006INS_9allocatorINS_6vectorIhNS1_IhEEEEEENS_16reverse_iteratorIPS4_EES8_S8_EET2_RT_T0_T1_S9_, symObjAddr: 0x48C8, symBinAddr: 0x100007F28, symSize: 0x12C }
  - { offsetInCU: 0x1244A, offset: 0x1244A, size: 0x8, addend: 0x0, symName: __ZNSt3__14swapB8ue170006IPNS_6vectorIhNS_9allocatorIhEEEEEENS_9enable_ifIXaasr21is_move_constructibleIT_EE5valuesr18is_move_assignableIS7_EE5valueEvE4typeERS7_SA_, symObjAddr: 0x4A40, symBinAddr: 0x1000080A0, symSize: 0x3C }
  - { offsetInCU: 0x1249B, offset: 0x1249B, size: 0x8, addend: 0x0, symName: __ZNSt3__122__make_exception_guardB8ue170006INS_29_AllocatorDestroyRangeReverseINS_9allocatorINS_6vectorIhNS2_IhEEEEEENS_16reverse_iteratorIPS5_EEEEEENS_28__exception_guard_exceptionsIT_EESC_, symObjAddr: 0x4B44, symBinAddr: 0x1000081A4, symSize: 0x4C }
  - { offsetInCU: 0x124D1, offset: 0x124D1, size: 0x8, addend: 0x0, symName: __ZNSt3__1neB8ue170006IPNS_6vectorIhNS_9allocatorIhEEEES5_EEbRKNS_16reverse_iteratorIT_EERKNS6_IT0_EE, symObjAddr: 0x4BD4, symBinAddr: 0x100008234, symSize: 0x48 }
  - { offsetInCU: 0x1251D, offset: 0x1251D, size: 0x8, addend: 0x0, symName: __ZNSt3__112__to_addressB8ue170006INS_16reverse_iteratorIPNS_6vectorIhNS_9allocatorIhEEEEEEvEEu7__decayIDTclsr19__to_address_helperIT_EE6__callclsr3stdE7declvalIRKS8_EEEEESA_, symObjAddr: 0x4C1C, symBinAddr: 0x10000827C, symSize: 0x24 }
  - { offsetInCU: 0x1257C, offset: 0x1257C, size: 0x8, addend: 0x0, symName: __ZNSt3__119__allocator_destroyB8ue170006INS_9allocatorINS_6vectorIhNS1_IhEEEEEENS_16reverse_iteratorINS6_IPS4_EEEES9_EEvRT_T0_T1_, symObjAddr: 0x4ECC, symBinAddr: 0x10000852C, symSize: 0x70 }
  - { offsetInCU: 0x125E1, offset: 0x125E1, size: 0x8, addend: 0x0, symName: __ZNSt3__1neB8ue170006INS_16reverse_iteratorIPNS_6vectorIhNS_9allocatorIhEEEEEES7_EEbRKNS1_IT_EERKNS1_IT0_EE, symObjAddr: 0x4F78, symBinAddr: 0x1000085D8, symSize: 0x60 }
  - { offsetInCU: 0x1262D, offset: 0x1262D, size: 0x8, addend: 0x0, symName: __ZNSt3__112__to_addressB8ue170006INS_16reverse_iteratorINS1_IPNS_6vectorIhNS_9allocatorIhEEEEEEEEvEEu7__decayIDTclsr19__to_address_helperIT_EE6__callclsr3stdE7declvalIRKS9_EEEEESB_, symObjAddr: 0x4FD8, symBinAddr: 0x100008638, symSize: 0x24 }
  - { offsetInCU: 0x1268C, offset: 0x1268C, size: 0x8, addend: 0x0, symName: __ZNSt3__122__make_exception_guardB8ue170006INS_6vectorIhNS_9allocatorIhEEE16__destroy_vectorEEENS_28__exception_guard_exceptionsIT_EES7_, symObjAddr: 0x5580, symBinAddr: 0x100008BE0, symSize: 0x40 }
  - { offsetInCU: 0x126C1, offset: 0x126C1, size: 0x8, addend: 0x0, symName: __ZNSt3__119__allocate_at_leastB8ue170006INS_9allocatorIhEEEENS_19__allocation_resultINS_16allocator_traitsIT_E7pointerEEERS5_m, symObjAddr: 0x5814, symBinAddr: 0x100008E74, symSize: 0x40 }
  - { offsetInCU: 0x12704, offset: 0x12704, size: 0x8, addend: 0x0, symName: __ZNSt3__130__uninitialized_allocator_copyB8ue170006INS_9allocatorIhEEPhS3_S3_EET2_RT_T0_T1_S4_, symObjAddr: 0x59CC, symBinAddr: 0x10000902C, symSize: 0x80 }
  - { offsetInCU: 0x127A1, offset: 0x127A1, size: 0x8, addend: 0x0, symName: __ZNSt3__114__unwrap_rangeB8ue170006IPhS1_EENS_4pairIT0_S3_EET_S5_, symObjAddr: 0x5ABC, symBinAddr: 0x10000911C, symSize: 0x60 }
  - { offsetInCU: 0x127ED, offset: 0x127ED, size: 0x8, addend: 0x0, symName: __ZNSt3__135__uninitialized_allocator_copy_implB8ue170006INS_9allocatorIhEEhhhLPv0EEEPT2_RT_PT0_S9_S5_, symObjAddr: 0x5B1C, symBinAddr: 0x10000917C, symSize: 0x38 }
  - { offsetInCU: 0x1286E, offset: 0x1286E, size: 0x8, addend: 0x0, symName: __ZNSt3__113__unwrap_iterB8ue170006IPhNS_18__unwrap_iter_implIS1_Lb1EEELi0EEEDTclsrT0_8__unwrapclsr3stdE7declvalIT_EEEES5_, symObjAddr: 0x5B54, symBinAddr: 0x1000091B4, symSize: 0x24 }
  - { offsetInCU: 0x128B2, offset: 0x128B2, size: 0x8, addend: 0x0, symName: __ZNSt3__113__rewrap_iterB8ue170006IPhS1_NS_18__unwrap_iter_implIS1_Lb1EEEEET_S4_T0_, symObjAddr: 0x5B78, symBinAddr: 0x1000091D8, symSize: 0x3C }
  - { offsetInCU: 0x12907, offset: 0x12907, size: 0x8, addend: 0x0, symName: __ZNSt3__19make_pairB8ue170006IPhS1_EENS_4pairINS_18__unwrap_ref_decayIT_E4typeENS3_IT0_E4typeEEEOS4_OS7_, symObjAddr: 0x5BB4, symBinAddr: 0x100009214, symSize: 0x38 }
  - { offsetInCU: 0x12A59, offset: 0x12A59, size: 0x8, addend: 0x0, symName: __ZNSt3__14copyB8ue170006IPhS1_EET0_T_S3_S2_, symObjAddr: 0x5C5C, symBinAddr: 0x1000092BC, symSize: 0x40 }
  - { offsetInCU: 0x12AB3, offset: 0x12AB3, size: 0x8, addend: 0x0, symName: __ZNSt3__16__copyB8ue170006INS_17_ClassicAlgPolicyEPhS2_S2_EENS_4pairIT0_T2_EES4_T1_S5_, symObjAddr: 0x5C9C, symBinAddr: 0x1000092FC, symSize: 0x44 }
  - { offsetInCU: 0x12B1F, offset: 0x12B1F, size: 0x8, addend: 0x0, symName: __ZNSt3__123__dispatch_copy_or_moveB8ue170006INS_17_ClassicAlgPolicyENS_11__copy_loopIS1_EENS_14__copy_trivialEPhS5_S5_EENS_4pairIT2_T4_EES7_T3_S8_, symObjAddr: 0x5CE0, symBinAddr: 0x100009340, symSize: 0x44 }
  - { offsetInCU: 0x12B9D, offset: 0x12B9D, size: 0x8, addend: 0x0, symName: __ZNSt3__121__unwrap_and_dispatchB8ue170006INS_10__overloadINS_11__copy_loopINS_17_ClassicAlgPolicyEEENS_14__copy_trivialEEEPhS7_S7_Li0EEENS_4pairIT0_T2_EES9_T1_SA_, symObjAddr: 0x5D24, symBinAddr: 0x100009384, symSize: 0xB4 }
  - { offsetInCU: 0x12C71, offset: 0x12C71, size: 0x8, addend: 0x0, symName: __ZNSt3__114__rewrap_rangeB8ue170006IPhS1_EET_S2_T0_, symObjAddr: 0x5E20, symBinAddr: 0x100009480, symSize: 0x2C }
  - { offsetInCU: 0x12CBD, offset: 0x12CBD, size: 0x8, addend: 0x0, symName: __ZNSt3__119__copy_trivial_implB8ue170006IhhEENS_4pairIPT_PT0_EES3_S3_S5_, symObjAddr: 0x5E4C, symBinAddr: 0x1000094AC, symSize: 0x78 }
  - { offsetInCU: 0x12D25, offset: 0x12D25, size: 0x8, addend: 0x0, symName: __ZNSt3__119__constexpr_memmoveB8ue170006IhhLi0EEEPT_S2_PT0_NS_15__element_countE, symObjAddr: 0x5EC4, symBinAddr: 0x100009524, symSize: 0x64 }
  - { offsetInCU: 0x12D93, offset: 0x12D93, size: 0x8, addend: 0x0, symName: __ZNSt3__19make_pairB8ue170006IRPhS1_EENS_4pairINS_18__unwrap_ref_decayIT_E4typeENS4_IT0_E4typeEEEOS5_OS8_, symObjAddr: 0x5F28, symBinAddr: 0x100009588, symSize: 0x38 }
  - { offsetInCU: 0x12E35, offset: 0x12E35, size: 0x8, addend: 0x0, symName: __ZNSt3__19use_facetB8ue170006INS_5ctypeIcEEEERKT_RKNS_6localeE, symObjAddr: 0x6128, symBinAddr: 0x100009788, symSize: 0x2C }
  - { offsetInCU: 0x13302, offset: 0x13302, size: 0x8, addend: 0x0, symName: __ZNSt3__116__pad_and_outputB8ue170006IcNS_11char_traitsIcEEEENS_19ostreambuf_iteratorIT_T0_EES6_PKS4_S8_S8_RNS_8ios_baseES4_, symObjAddr: 0x6394, symBinAddr: 0x1000099F4, symSize: 0x240 }
  - { offsetInCU: 0x133D1, offset: 0x133D1, size: 0x8, addend: 0x0, symName: __ZNSt3__112__to_addressB8ue170006IKcEEPT_S3_, symObjAddr: 0x6804, symBinAddr: 0x100009E64, symSize: 0x14 }
  - { offsetInCU: 0x13439, offset: 0x13439, size: 0x8, addend: 0x0, symName: __ZNSt3__112__to_addressB8ue170006INS_4pairINS_6vectorIhNS_9allocatorIhEEEES5_EEEEPT_S8_, symObjAddr: 0x6F08, symBinAddr: 0x10000A568, symSize: 0x14 }
  - { offsetInCU: 0x1346E, offset: 0x1346E, size: 0x8, addend: 0x0, symName: __ZNSt3__122__make_exception_guardB8ue170006INS_6vectorINS1_IhNS_9allocatorIhEEEENS2_IS4_EEE16__destroy_vectorEEENS_28__exception_guard_exceptionsIT_EES9_, symObjAddr: 0x7584, symBinAddr: 0x10000ABE4, symSize: 0x40 }
  - { offsetInCU: 0x134A3, offset: 0x134A3, size: 0x8, addend: 0x0, symName: __ZNSt3__130__uninitialized_allocator_copyB8ue170006INS_9allocatorINS_6vectorIhNS1_IhEEEEEEPS4_S6_S6_EET2_RT_T0_T1_S7_, symObjAddr: 0x77A4, symBinAddr: 0x10000AE04, symSize: 0x80 }
  - { offsetInCU: 0x13540, offset: 0x13540, size: 0x8, addend: 0x0, symName: __ZNSt3__114__unwrap_rangeB8ue170006IPNS_6vectorIhNS_9allocatorIhEEEES5_EENS_4pairIT0_S7_EET_S9_, symObjAddr: 0x7824, symBinAddr: 0x10000AE84, symSize: 0x60 }
  - { offsetInCU: 0x1358C, offset: 0x1358C, size: 0x8, addend: 0x0, symName: __ZNSt3__135__uninitialized_allocator_copy_implB8ue170006INS_9allocatorINS_6vectorIhNS1_IhEEEEEEPS4_S6_S6_EET2_RT_T0_T1_S7_, symObjAddr: 0x7884, symBinAddr: 0x10000AEE4, symSize: 0xF4 }
  - { offsetInCU: 0x1362A, offset: 0x1362A, size: 0x8, addend: 0x0, symName: __ZNSt3__113__unwrap_iterB8ue170006IPNS_6vectorIhNS_9allocatorIhEEEENS_18__unwrap_iter_implIS5_Lb1EEELi0EEEDTclsrT0_8__unwrapclsr3stdE7declvalIT_EEEES9_, symObjAddr: 0x7978, symBinAddr: 0x10000AFD8, symSize: 0x24 }
  - { offsetInCU: 0x1366E, offset: 0x1366E, size: 0x8, addend: 0x0, symName: __ZNSt3__113__rewrap_iterB8ue170006IPNS_6vectorIhNS_9allocatorIhEEEES5_NS_18__unwrap_iter_implIS5_Lb1EEEEET_S8_T0_, symObjAddr: 0x799C, symBinAddr: 0x10000AFFC, symSize: 0x3C }
  - { offsetInCU: 0x136C3, offset: 0x136C3, size: 0x8, addend: 0x0, symName: __ZNSt3__19make_pairB8ue170006IPNS_6vectorIhNS_9allocatorIhEEEES5_EENS_4pairINS_18__unwrap_ref_decayIT_E4typeENS7_IT0_E4typeEEEOS8_OSB_, symObjAddr: 0x79D8, symBinAddr: 0x10000B038, symSize: 0x38 }
  - { offsetInCU: 0x137E6, offset: 0x137E6, size: 0x8, addend: 0x0, symName: __ZNSt3__122__make_exception_guardB8ue170006INS_29_AllocatorDestroyRangeReverseINS_9allocatorINS_6vectorIhNS2_IhEEEEEEPS5_EEEENS_28__exception_guard_exceptionsIT_EESA_, symObjAddr: 0x7A80, symBinAddr: 0x10000B0E0, symSize: 0x4C }
  - { offsetInCU: 0x1381C, offset: 0x1381C, size: 0x8, addend: 0x0, symName: __ZNSt3__119__allocator_destroyB8ue170006INS_9allocatorINS_6vectorIhNS1_IhEEEEEENS_16reverse_iteratorIPS4_EES8_EEvRT_T0_T1_, symObjAddr: 0x7D10, symBinAddr: 0x10000B370, symSize: 0x70 }
  - { offsetInCU: 0x13909, offset: 0x13909, size: 0x8, addend: 0x0, symName: __ZNSt3__116forward_as_tupleB8ue170006IJRKiEEENS_5tupleIJDpOT_EEES6_, symObjAddr: 0x81E4, symBinAddr: 0x10000B844, symSize: 0x2C }
  - { offsetInCU: 0x13942, offset: 0x13942, size: 0x8, addend: 0x0, symName: __ZNSt3__116forward_as_tupleB8ue170006IJEEENS_5tupleIJDpOT_EEES4_, symObjAddr: 0x8210, symBinAddr: 0x10000B870, symSize: 0x4 }
  - { offsetInCU: 0x1398F, offset: 0x1398F, size: 0x8, addend: 0x0, symName: __ZNSt3__13getB8ue170006ILm0EJRKiEEERNS_13tuple_elementIXT_ENS_5tupleIJDpT0_EEEE4typeERS7_, symObjAddr: 0x8C58, symBinAddr: 0x10000C2B8, symSize: 0x24 }
  - { offsetInCU: 0x139D2, offset: 0x139D2, size: 0x8, addend: 0x0, symName: __ZNSt3__127__tree_balance_after_insertB8ue170006IPNS_16__tree_node_baseIPvEEEEvT_S5_, symObjAddr: 0x8D08, symBinAddr: 0x10000C368, symSize: 0x32C }
  - { offsetInCU: 0x13A4E, offset: 0x13A4E, size: 0x8, addend: 0x0, symName: __ZNSt3__120__tree_is_left_childB8ue170006IPNS_16__tree_node_baseIPvEEEEbT_, symObjAddr: 0x9074, symBinAddr: 0x10000C6D4, symSize: 0x2C }
  - { offsetInCU: 0x13A83, offset: 0x13A83, size: 0x8, addend: 0x0, symName: __ZNSt3__118__tree_left_rotateB8ue170006IPNS_16__tree_node_baseIPvEEEEvT_, symObjAddr: 0x90A0, symBinAddr: 0x10000C700, symSize: 0xD8 }
  - { offsetInCU: 0x13AC5, offset: 0x13AC5, size: 0x8, addend: 0x0, symName: __ZNSt3__119__tree_right_rotateB8ue170006IPNS_16__tree_node_baseIPvEEEEvT_, symObjAddr: 0x9178, symBinAddr: 0x10000C7D8, symSize: 0xCC }
  - { offsetInCU: 0x13B5E, offset: 0x13B5E, size: 0x8, addend: 0x0, symName: __ZNSt3__15equalB8ue170006INS_11__wrap_iterIPKhEES4_EEbT_S5_T0_, symObjAddr: 0x9584, symBinAddr: 0x10000CBE4, symSize: 0x50 }
  - { offsetInCU: 0x13BB8, offset: 0x13BB8, size: 0x8, addend: 0x0, symName: __ZNSt3__15equalB8ue170006INS_11__wrap_iterIPKhEES4_NS_10__equal_toEEEbT_S6_T0_T1_, symObjAddr: 0x9634, symBinAddr: 0x10000CC94, symSize: 0x74 }
  - { offsetInCU: 0x13C29, offset: 0x13C29, size: 0x8, addend: 0x0, symName: __ZNSt3__117__equal_iter_implB8ue170006IKhS1_NS_10__equal_toELi0EEEbPT_S4_PT0_RT1_, symObjAddr: 0x96A8, symBinAddr: 0x10000CD08, symSize: 0x44 }
  - { offsetInCU: 0x13C9C, offset: 0x13C9C, size: 0x8, addend: 0x0, symName: __ZNSt3__113__unwrap_iterB8ue170006INS_11__wrap_iterIPKhEENS_18__unwrap_iter_implIS4_Lb1EEELi0EEEDTclsrT0_8__unwrapclsr3stdE7declvalIT_EEEES8_, symObjAddr: 0x96EC, symBinAddr: 0x10000CD4C, symSize: 0x2C }
  - { offsetInCU: 0x13CE0, offset: 0x13CE0, size: 0x8, addend: 0x0, symName: __ZNSt3__124__constexpr_memcmp_equalB8ue170006IhhEEbPKT_PKT0_NS_15__element_countE, symObjAddr: 0x9718, symBinAddr: 0x10000CD78, symSize: 0x4C }
  - { offsetInCU: 0x13D9B, offset: 0x13D9B, size: 0x8, addend: 0x0, symName: __ZNSt3__112__to_addressB8ue170006INS_11__wrap_iterIPKhEEvEEu7__decayIDTclsr19__to_address_helperIT_EE6__callclsr3stdE7declvalIRKS5_EEEEES7_, symObjAddr: 0x978C, symBinAddr: 0x10000CDEC, symSize: 0x24 }
  - { offsetInCU: 0x13E76, offset: 0x13E76, size: 0x8, addend: 0x0, symName: __ZNSt3__112__to_addressB8ue170006IKhEEPT_S3_, symObjAddr: 0x980C, symBinAddr: 0x10000CE6C, symSize: 0x14 }
  - { offsetInCU: 0x13EAB, offset: 0x13EAB, size: 0x8, addend: 0x0, symName: __ZNSt3__142__uninitialized_allocator_move_if_noexceptB8ue170006INS_9allocatorIhEENS_16reverse_iteratorIPhEES5_hvEET1_RT_T0_S9_S6_, symObjAddr: 0xA014, symBinAddr: 0x10000D674, symSize: 0x78 }
  - { offsetInCU: 0x13F28, offset: 0x13F28, size: 0x8, addend: 0x0, symName: __ZNSt3__14swapB8ue170006IPhEENS_9enable_ifIXaasr21is_move_constructibleIT_EE5valuesr18is_move_assignableIS3_EE5valueEvE4typeERS3_S6_, symObjAddr: 0xA0D8, symBinAddr: 0x10000D738, symSize: 0x3C }
  - { offsetInCU: 0x13F79, offset: 0x13F79, size: 0x8, addend: 0x0, symName: __ZNSt3__14moveB8ue170006INS_16reverse_iteratorIPhEES3_EET0_T_S5_S4_, symObjAddr: 0xA114, symBinAddr: 0x10000D774, symSize: 0x78 }
  - { offsetInCU: 0x13FD3, offset: 0x13FD3, size: 0x8, addend: 0x0, symName: __ZNSt3__16__moveB8ue170006INS_17_ClassicAlgPolicyENS_16reverse_iteratorIPhEES4_S4_EENS_4pairIT0_T2_EES6_T1_S7_, symObjAddr: 0xA18C, symBinAddr: 0x10000D7EC, symSize: 0x64 }
  - { offsetInCU: 0x1403F, offset: 0x1403F, size: 0x8, addend: 0x0, symName: __ZNSt3__123__dispatch_copy_or_moveB8ue170006INS_17_ClassicAlgPolicyENS_11__move_loopIS1_EENS_14__move_trivialENS_16reverse_iteratorIPhEES7_S7_EENS_4pairIT2_T4_EES9_T3_SA_, symObjAddr: 0xA1F0, symBinAddr: 0x10000D850, symSize: 0x64 }
  - { offsetInCU: 0x140BD, offset: 0x140BD, size: 0x8, addend: 0x0, symName: __ZNSt3__121__unwrap_and_dispatchB8ue170006INS_10__overloadINS_11__move_loopINS_17_ClassicAlgPolicyEEENS_14__move_trivialEEENS_16reverse_iteratorIPhEES9_S9_Li0EEENS_4pairIT0_T2_EESB_T1_SC_, symObjAddr: 0xA254, symBinAddr: 0x10000D8B4, symSize: 0x12C }
  - { offsetInCU: 0x1414D, offset: 0x1414D, size: 0x8, addend: 0x0, symName: __ZNSt3__114__unwrap_rangeB8ue170006INS_16reverse_iteratorIPhEES3_EENS_4pairIT0_S5_EET_S7_, symObjAddr: 0xA380, symBinAddr: 0x10000D9E0, symSize: 0x84 }
  - { offsetInCU: 0x142C8, offset: 0x142C8, size: 0x8, addend: 0x0, symName: __ZNSt3__113__unwrap_iterB8ue170006INS_16reverse_iteratorIPhEENS_18__unwrap_iter_implIS3_Lb0EEELi0EEEDTclsrT0_8__unwrapclsr3stdE7declvalIT_EEEES7_, symObjAddr: 0xA4A4, symBinAddr: 0x10000DB04, symSize: 0x44 }
  - { offsetInCU: 0x1430C, offset: 0x1430C, size: 0x8, addend: 0x0, symName: __ZNSt3__19make_pairB8ue170006INS_16reverse_iteratorIPhEES3_EENS_4pairINS_18__unwrap_ref_decayIT_E4typeENS5_IT0_E4typeEEEOS6_OS9_, symObjAddr: 0xA4E8, symBinAddr: 0x10000DB48, symSize: 0x38 }
  - { offsetInCU: 0x1435B, offset: 0x1435B, size: 0x8, addend: 0x0, symName: __ZNSt3__114__rewrap_rangeB8ue170006INS_16reverse_iteratorIPhEES3_EET_S4_T0_, symObjAddr: 0xA520, symBinAddr: 0x10000DB80, symSize: 0x5C }
  - { offsetInCU: 0x143A7, offset: 0x143A7, size: 0x8, addend: 0x0, symName: __ZNSt3__113__rewrap_iterB8ue170006INS_16reverse_iteratorIPhEES3_NS_18__unwrap_iter_implIS3_Lb0EEEEET_S6_T0_, symObjAddr: 0xA57C, symBinAddr: 0x10000DBDC, symSize: 0x74 }
  - { offsetInCU: 0x143FC, offset: 0x143FC, size: 0x8, addend: 0x0, symName: __ZNSt3__1neB8ue170006IPhS1_EEbRKNS_16reverse_iteratorIT_EERKNS2_IT0_EE, symObjAddr: 0xA5F0, symBinAddr: 0x10000DC50, symSize: 0x48 }
  - { offsetInCU: 0x145C8, offset: 0x145C8, size: 0x8, addend: 0x0, symName: __ZNSt3__116forward_as_tupleB8ue170006IJRKNS_4pairINS_6vectorIhNS_9allocatorIhEEEES5_EEEEENS_5tupleIJDpOT_EEESC_, symObjAddr: 0xB288, symBinAddr: 0x10000E8E8, symSize: 0x2C }
  - { offsetInCU: 0x14601, offset: 0x14601, size: 0x8, addend: 0x0, symName: __ZNSt3__1ltB8ue170006INS_6vectorIhNS_9allocatorIhEEEES4_S4_S4_EEbRKNS_4pairIT_T0_EERKNS5_IT1_T2_EE, symObjAddr: 0xB8BC, symBinAddr: 0x10000EF1C, symSize: 0x88 }
  - { offsetInCU: 0x14662, offset: 0x14662, size: 0x8, addend: 0x0, symName: __ZNSt3__1ltB8ue170006IhNS_9allocatorIhEEEEbRKNS_6vectorIT_T0_EES8_, symObjAddr: 0xB944, symBinAddr: 0x10000EFA4, symSize: 0x68 }
  - { offsetInCU: 0x146B1, offset: 0x146B1, size: 0x8, addend: 0x0, symName: __ZNSt3__123lexicographical_compareB8ue170006INS_11__wrap_iterIPKhEES4_EEbT_S5_T0_S6_, symObjAddr: 0xB9AC, symBinAddr: 0x10000F00C, symSize: 0x60 }
  - { offsetInCU: 0x14719, offset: 0x14719, size: 0x8, addend: 0x0, symName: __ZNSt3__123lexicographical_compareB8ue170006INS_11__wrap_iterIPKhEES4_NS_6__lessIvvEEEEbT_S7_T0_S8_T1_, symObjAddr: 0xBA0C, symBinAddr: 0x10000F06C, symSize: 0x64 }
  - { offsetInCU: 0x14798, offset: 0x14798, size: 0x8, addend: 0x0, symName: __ZNSt3__125__lexicographical_compareB8ue170006IRNS_6__lessIvvEENS_11__wrap_iterIPKhEES7_EEbT0_S8_T1_S9_T_, symObjAddr: 0xBA70, symBinAddr: 0x10000F0D0, symSize: 0x11C }
  - { offsetInCU: 0x14817, offset: 0x14817, size: 0x8, addend: 0x0, symName: __ZNSt3__1neB8ue170006IPKhEEbRKNS_11__wrap_iterIT_EES7_, symObjAddr: 0xBB8C, symBinAddr: 0x10000F1EC, symSize: 0x34 }
  - { offsetInCU: 0x1485A, offset: 0x1485A, size: 0x8, addend: 0x0, symName: __ZNSt3__1eqB8ue170006IPKhEEbRKNS_11__wrap_iterIT_EES7_, symObjAddr: 0xBBC0, symBinAddr: 0x10000F220, symSize: 0x48 }
  - { offsetInCU: 0x148BB, offset: 0x148BB, size: 0x8, addend: 0x0, symName: __ZNSt3__13getB8ue170006ILm0EJRKNS_4pairINS_6vectorIhNS_9allocatorIhEEEES5_EEEEERNS_13tuple_elementIXT_ENS_5tupleIJDpT0_EEEE4typeERSD_, symObjAddr: 0xC0A4, symBinAddr: 0x10000F704, symSize: 0x24 }
  - { offsetInCU: 0x14946, offset: 0x14946, size: 0x8, addend: 0x0, symName: __ZNSt3__18distanceB8ue170006INS_14__map_iteratorINS_15__tree_iteratorINS_12__value_typeINS_4pairINS_6vectorIhNS_9allocatorIhEEEES8_EEiEEPNS_11__tree_nodeISA_PvEElEEEEEENS_15iterator_traitsIT_E15difference_typeESI_SI_, symObjAddr: 0xC668, symBinAddr: 0x10000FCC8, symSize: 0x3C }
  - { offsetInCU: 0x14989, offset: 0x14989, size: 0x8, addend: 0x0, symName: __ZNSt3__110__distanceB8ue170006INS_14__map_iteratorINS_15__tree_iteratorINS_12__value_typeINS_4pairINS_6vectorIhNS_9allocatorIhEEEES8_EEiEEPNS_11__tree_nodeISA_PvEElEEEEEENS_15iterator_traitsIT_E15difference_typeESI_SI_NS_18input_iterator_tagE, symObjAddr: 0xC834, symBinAddr: 0x10000FE94, symSize: 0x5C }
  - { offsetInCU: 0x149E4, offset: 0x149E4, size: 0x8, addend: 0x0, symName: __ZNSt3__1neB8ue170006ERKNS_14__map_iteratorINS_15__tree_iteratorINS_12__value_typeINS_4pairINS_6vectorIhNS_9allocatorIhEEEES7_EEiEEPNS_11__tree_nodeIS9_PvEElEEEESH_, symObjAddr: 0xC890, symBinAddr: 0x10000FEF0, symSize: 0x30 }
  - { offsetInCU: 0x14A21, offset: 0x14A21, size: 0x8, addend: 0x0, symName: __ZNSt3__1neB8ue170006ERKNS_15__tree_iteratorINS_12__value_typeINS_4pairINS_6vectorIhNS_9allocatorIhEEEES6_EEiEEPNS_11__tree_nodeIS8_PvEElEESF_, symObjAddr: 0xC8EC, symBinAddr: 0x10000FF4C, symSize: 0x34 }
  - { offsetInCU: 0x14A5E, offset: 0x14A5E, size: 0x8, addend: 0x0, symName: __ZNSt3__1eqB8ue170006ERKNS_15__tree_iteratorINS_12__value_typeINS_4pairINS_6vectorIhNS_9allocatorIhEEEES6_EEiEEPNS_11__tree_nodeIS8_PvEElEESF_, symObjAddr: 0xC920, symBinAddr: 0x10000FF80, symSize: 0x30 }
  - { offsetInCU: 0x14A9B, offset: 0x14A9B, size: 0x8, addend: 0x0, symName: __ZNSt3__116__tree_next_iterB8ue170006IPNS_15__tree_end_nodeIPNS_16__tree_node_baseIPvEEEES5_EET_T0_, symObjAddr: 0xC988, symBinAddr: 0x10000FFE8, symSize: 0x80 }
  - { offsetInCU: 0x14AD9, offset: 0x14AD9, size: 0x8, addend: 0x0, symName: __ZNSt3__110__tree_minB8ue170006IPNS_16__tree_node_baseIPvEEEET_S5_, symObjAddr: 0xCA08, symBinAddr: 0x100010068, symSize: 0x40 }
  - { offsetInCU: 0x14B0E, offset: 0x14B0E, size: 0x8, addend: 0x0, symName: __ZNSt3__122__make_exception_guardB8ue170006INS_6vectorINS_4pairINS2_INS1_IhNS_9allocatorIhEEEES5_EEiEENS3_IS7_EEE16__destroy_vectorEEENS_28__exception_guard_exceptionsIT_EESC_, symObjAddr: 0xCA48, symBinAddr: 0x1000100A8, symSize: 0x40 }
  - { offsetInCU: 0x14B43, offset: 0x14B43, size: 0x8, addend: 0x0, symName: __ZNSt3__119__allocate_at_leastB8ue170006INS_9allocatorINS_4pairINS2_INS_6vectorIhNS1_IhEEEES5_EEiEEEEEENS_19__allocation_resultINS_16allocator_traitsIT_E7pointerEEERSB_m, symObjAddr: 0xCD48, symBinAddr: 0x1000103A8, symSize: 0x40 }
  - { offsetInCU: 0x14B86, offset: 0x14B86, size: 0x8, addend: 0x0, symName: __ZNSt3__112__to_addressB8ue170006INS_4pairINS1_INS_6vectorIhNS_9allocatorIhEEEES5_EEiEEEEPT_S9_, symObjAddr: 0xD098, symBinAddr: 0x1000106F8, symSize: 0x14 }
  - { offsetInCU: 0x14BBB, offset: 0x14BBB, size: 0x8, addend: 0x0, symName: __ZNSt3__130__uninitialized_allocator_copyB8ue170006INS_9allocatorINS_4pairINS2_INS_6vectorIhNS1_IhEEEES5_EEiEEEENS_14__map_iteratorINS_15__tree_iteratorINS_12__value_typeIS6_iEEPNS_11__tree_nodeISC_PvEElEEEESI_PS7_EET2_RT_T0_T1_SK_, symObjAddr: 0xD148, symBinAddr: 0x1000107A8, symSize: 0x90 }
  - { offsetInCU: 0x14C58, offset: 0x14C58, size: 0x8, addend: 0x0, symName: __ZNSt3__114__unwrap_rangeB8ue170006INS_14__map_iteratorINS_15__tree_iteratorINS_12__value_typeINS_4pairINS_6vectorIhNS_9allocatorIhEEEES8_EEiEEPNS_11__tree_nodeISA_PvEElEEEESG_EENS4_IT0_SH_EET_SJ_, symObjAddr: 0xD250, symBinAddr: 0x1000108B0, symSize: 0x70 }
  - { offsetInCU: 0x14CA4, offset: 0x14CA4, size: 0x8, addend: 0x0, symName: __ZNSt3__135__uninitialized_allocator_copy_implB8ue170006INS_9allocatorINS_4pairINS2_INS_6vectorIhNS1_IhEEEES5_EEiEEEENS_14__map_iteratorINS_15__tree_iteratorINS_12__value_typeIS6_iEEPNS_11__tree_nodeISC_PvEElEEEESI_PS7_EET2_RT_T0_T1_SK_, symObjAddr: 0xD2C0, symBinAddr: 0x100010920, symSize: 0x110 }
  - { offsetInCU: 0x14D42, offset: 0x14D42, size: 0x8, addend: 0x0, symName: __ZNSt3__113__unwrap_iterB8ue170006IPNS_4pairINS1_INS_6vectorIhNS_9allocatorIhEEEES5_EEiEENS_18__unwrap_iter_implIS8_Lb1EEELi0EEEDTclsrT0_8__unwrapclsr3stdE7declvalIT_EEEESC_, symObjAddr: 0xD3D0, symBinAddr: 0x100010A30, symSize: 0x24 }
  - { offsetInCU: 0x14D86, offset: 0x14D86, size: 0x8, addend: 0x0, symName: __ZNSt3__113__rewrap_iterB8ue170006IPNS_4pairINS1_INS_6vectorIhNS_9allocatorIhEEEES5_EEiEES8_NS_18__unwrap_iter_implIS8_Lb1EEEEET_SB_T0_, symObjAddr: 0xD3F4, symBinAddr: 0x100010A54, symSize: 0x3C }
  - { offsetInCU: 0x14DDB, offset: 0x14DDB, size: 0x8, addend: 0x0, symName: __ZNSt3__19make_pairB8ue170006INS_14__map_iteratorINS_15__tree_iteratorINS_12__value_typeINS_4pairINS_6vectorIhNS_9allocatorIhEEEES8_EEiEEPNS_11__tree_nodeISA_PvEElEEEESG_EENS4_INS_18__unwrap_ref_decayIT_E4typeENSH_IT0_E4typeEEEOSI_OSL_, symObjAddr: 0xD430, symBinAddr: 0x100010A90, symSize: 0x38 }
  - { offsetInCU: 0x14E2A, offset: 0x14E2A, size: 0x8, addend: 0x0, symName: __ZNSt3__113__unwrap_iterB8ue170006INS_14__map_iteratorINS_15__tree_iteratorINS_12__value_typeINS_4pairINS_6vectorIhNS_9allocatorIhEEEES8_EEiEEPNS_11__tree_nodeISA_PvEElEEEENS_18__unwrap_iter_implISG_Lb0EEELi0EEEDTclsrT0_8__unwrapclsr3stdE7declvalIT_EEEESK_, symObjAddr: 0xD468, symBinAddr: 0x100010AC8, symSize: 0x34 }
  - { offsetInCU: 0x14EB6, offset: 0x14EB6, size: 0x8, addend: 0x0, symName: __ZNSt3__122__make_exception_guardB8ue170006INS_29_AllocatorDestroyRangeReverseINS_9allocatorINS_4pairINS3_INS_6vectorIhNS2_IhEEEES6_EEiEEEEPS8_EEEENS_28__exception_guard_exceptionsIT_EESD_, symObjAddr: 0xD528, symBinAddr: 0x100010B88, symSize: 0x4C }
  - { offsetInCU: 0x14EEC, offset: 0x14EEC, size: 0x8, addend: 0x0, symName: __ZNSt3__119__allocator_destroyB8ue170006INS_9allocatorINS_4pairINS2_INS_6vectorIhNS1_IhEEEES5_EEiEEEENS_16reverse_iteratorIPS7_EESB_EEvRT_T0_T1_, symObjAddr: 0xD854, symBinAddr: 0x100010EB4, symSize: 0x70 }
  - { offsetInCU: 0x14F4F, offset: 0x14F4F, size: 0x8, addend: 0x0, symName: __ZNSt3__1neB8ue170006IPNS_4pairINS1_INS_6vectorIhNS_9allocatorIhEEEES5_EEiEES8_EEbRKNS_16reverse_iteratorIT_EERKNS9_IT0_EE, symObjAddr: 0xD8F8, symBinAddr: 0x100010F58, symSize: 0x48 }
  - { offsetInCU: 0x14F9B, offset: 0x14F9B, size: 0x8, addend: 0x0, symName: __ZNSt3__112__to_addressB8ue170006INS_16reverse_iteratorIPNS_4pairINS2_INS_6vectorIhNS_9allocatorIhEEEES6_EEiEEEEvEEu7__decayIDTclsr19__to_address_helperIT_EE6__callclsr3stdE7declvalIRKSB_EEEEESD_, symObjAddr: 0xD96C, symBinAddr: 0x100010FCC, symSize: 0x24 }
  - { offsetInCU: 0x1504D, offset: 0x1504D, size: 0x8, addend: 0x0, symName: __ZNSt3__111__sort_implB8ue170006INS_17_ClassicAlgPolicyENS_11__wrap_iterIPNS_4pairINS3_INS_6vectorIhNS_9allocatorIhEEEES7_EEiEEEEPFbRKS9_SD_EEEvT0_SG_RT1_, symObjAddr: 0xDF5C, symBinAddr: 0x1000115BC, symSize: 0xA8 }
  - { offsetInCU: 0x150B0, offset: 0x150B0, size: 0x8, addend: 0x0, symName: __ZNSt3__123__debug_randomize_rangeB8ue170006INS_17_ClassicAlgPolicyENS_11__wrap_iterIPNS_4pairINS3_INS_6vectorIhNS_9allocatorIhEEEES7_EEiEEEESB_EEvT0_T1_, symObjAddr: 0xE004, symBinAddr: 0x100011664, symSize: 0x14 }
  - { offsetInCU: 0x15101, offset: 0x15101, size: 0x8, addend: 0x0, symName: __ZNSt3__115__sort_dispatchB8ue170006INS_17_ClassicAlgPolicyEPNS_4pairINS2_INS_6vectorIhNS_9allocatorIhEEEES6_EEiEEPFbRKS8_SB_EEEvT0_SE_RT1_, symObjAddr: 0xE018, symBinAddr: 0x100011678, symSize: 0x64 }
  - { offsetInCU: 0x1517F, offset: 0x1517F, size: 0x8, addend: 0x0, symName: __ZNSt3__113__unwrap_iterB8ue170006INS_11__wrap_iterIPNS_4pairINS2_INS_6vectorIhNS_9allocatorIhEEEES6_EEiEEEENS_18__unwrap_iter_implISA_Lb1EEELi0EEEDTclsrT0_8__unwrapclsr3stdE7declvalIT_EEEESE_, symObjAddr: 0xE07C, symBinAddr: 0x1000116DC, symSize: 0x2C }
  - { offsetInCU: 0x151C3, offset: 0x151C3, size: 0x8, addend: 0x0, symName: __ZNSt3__135__check_strict_weak_ordering_sortedB8ue170006IPNS_4pairINS1_INS_6vectorIhNS_9allocatorIhEEEES5_EEiEEPFbRKS7_SA_EEEvT_SD_RT0_, symObjAddr: 0xE0A8, symBinAddr: 0x100011708, symSize: 0x18 }
  - { offsetInCU: 0x15219, offset: 0x15219, size: 0x8, addend: 0x0, symName: __ZNSt3__17__log2iB8ue170006IlEET_S1_, symObjAddr: 0xE0C0, symBinAddr: 0x100011720, symSize: 0x54 }
  - { offsetInCU: 0x15250, offset: 0x15250, size: 0x8, addend: 0x0, symName: __ZNSt3__112__libcpp_clzB8ue170006Em, symObjAddr: 0xE5A4, symBinAddr: 0x100011C04, symSize: 0x1C }
  - { offsetInCU: 0x1527C, offset: 0x1527C, size: 0x8, addend: 0x0, symName: __ZNSt3__124__sort3_maybe_branchlessB8ue170006INS_17_ClassicAlgPolicyERPFbRKNS_4pairINS2_INS_6vectorIhNS_9allocatorIhEEEES6_EEiEESA_EPS8_EENS_9enable_ifIXntsr21__use_branchless_sortIT0_T1_EE5valueEvE4typeESH_SH_SH_SG_, symObjAddr: 0xE5F4, symBinAddr: 0x100011C54, symSize: 0x3C }
  - { offsetInCU: 0x152ED, offset: 0x152ED, size: 0x8, addend: 0x0, symName: __ZNSt3__124__sort4_maybe_branchlessB8ue170006INS_17_ClassicAlgPolicyERPFbRKNS_4pairINS2_INS_6vectorIhNS_9allocatorIhEEEES6_EEiEESA_EPS8_EENS_9enable_ifIXntsr21__use_branchless_sortIT0_T1_EE5valueEvE4typeESH_SH_SH_SH_SG_, symObjAddr: 0xE630, symBinAddr: 0x100011C90, symSize: 0x44 }
  - { offsetInCU: 0x1536C, offset: 0x1536C, size: 0x8, addend: 0x0, symName: __ZNSt3__124__sort5_maybe_branchlessB8ue170006INS_17_ClassicAlgPolicyERPFbRKNS_4pairINS2_INS_6vectorIhNS_9allocatorIhEEEES6_EEiEESA_EPS8_EENS_9enable_ifIXntsr21__use_branchless_sortIT0_T1_EE5valueEvE4typeESH_SH_SH_SH_SH_SG_, symObjAddr: 0xE674, symBinAddr: 0x100011CD4, symSize: 0x4C }
  - { offsetInCU: 0x153F9, offset: 0x153F9, size: 0x8, addend: 0x0, symName: __ZNSt3__116__insertion_sortB8ue170006INS_17_ClassicAlgPolicyERPFbRKNS_4pairINS2_INS_6vectorIhNS_9allocatorIhEEEES6_EEiEESA_EPS8_EEvT1_SF_T0_, symObjAddr: 0xE6C0, symBinAddr: 0x100011D20, symSize: 0x19C }
  - { offsetInCU: 0x154AC, offset: 0x154AC, size: 0x8, addend: 0x0, symName: __ZNSt3__114__partial_sortB8ue170006INS_17_ClassicAlgPolicyERPFbRKNS_4pairINS2_INS_6vectorIhNS_9allocatorIhEEEES6_EEiEESA_EPS8_SE_EET1_SF_SF_T2_RT0_, symObjAddr: 0xE9C8, symBinAddr: 0x100012028, symSize: 0x94 }
  - { offsetInCU: 0x15534, offset: 0x15534, size: 0x8, addend: 0x0, symName: __ZNSt3__17__sort3B8ue170006INS_17_ClassicAlgPolicyERPFbRKNS_4pairINS2_INS_6vectorIhNS_9allocatorIhEEEES6_EEiEESA_EPS8_EEjT1_SF_SF_T0_, symObjAddr: 0xEA5C, symBinAddr: 0x1000120BC, symSize: 0x158 }
  - { offsetInCU: 0x155B3, offset: 0x155B3, size: 0x8, addend: 0x0, symName: __ZNSt3__19iter_swapB8ue170006IPNS_4pairINS1_INS_6vectorIhNS_9allocatorIhEEEES5_EEiEES8_EEvT_T0_, symObjAddr: 0xF89C, symBinAddr: 0x100012EFC, symSize: 0x2C }
  - { offsetInCU: 0x155FB, offset: 0x155FB, size: 0x8, addend: 0x0, symName: __ZNSt3__14swapB8ue170006INS_4pairINS_6vectorIhNS_9allocatorIhEEEES5_EEiEENS_9enable_ifIXaasr14__is_swappableIT_EE5valuesr14__is_swappableIT0_EE5valueEvE4typeERNS1_IS8_S9_EESD_, symObjAddr: 0xF8C8, symBinAddr: 0x100012F28, symSize: 0x2C }
  - { offsetInCU: 0x1564A, offset: 0x1564A, size: 0x8, addend: 0x0, symName: __ZNSt3__14swapB8ue170006INS_6vectorIhNS_9allocatorIhEEEES4_EENS_9enable_ifIXaasr14__is_swappableIT_EE5valuesr14__is_swappableIT0_EE5valueEvE4typeERNS_4pairIS6_S7_EESC_, symObjAddr: 0xF938, symBinAddr: 0x100012F98, symSize: 0x2C }
  - { offsetInCU: 0x15699, offset: 0x15699, size: 0x8, addend: 0x0, symName: __ZNSt3__14swapB8ue170006IiEENS_9enable_ifIXaasr21is_move_constructibleIT_EE5valuesr18is_move_assignableIS2_EE5valueEvE4typeERS2_S5_, symObjAddr: 0xF964, symBinAddr: 0x100012FC4, symSize: 0x3C }
  - { offsetInCU: 0x156EA, offset: 0x156EA, size: 0x8, addend: 0x0, symName: __ZNSt3__14swapB8ue170006IhNS_9allocatorIhEEEEvRNS_6vectorIT_T0_EES7_, symObjAddr: 0xF9E4, symBinAddr: 0x100013044, symSize: 0x2C }
  - { offsetInCU: 0x15735, offset: 0x15735, size: 0x8, addend: 0x0, symName: __ZNSt3__116__swap_allocatorB8ue170006INS_9allocatorIhEEEEvRT_S4_NS_17integral_constantIbLb0EEE, symObjAddr: 0xFA94, symBinAddr: 0x1000130F4, symSize: 0x14 }
  - { offsetInCU: 0x15776, offset: 0x15776, size: 0x8, addend: 0x0, symName: __ZNSt3__17__sort4B8ue170006INS_17_ClassicAlgPolicyERPFbRKNS_4pairINS2_INS_6vectorIhNS_9allocatorIhEEEES6_EEiEESA_EPS8_EEvT1_SF_SF_SF_T0_, symObjAddr: 0xFAA8, symBinAddr: 0x100013108, symSize: 0xC4 }
  - { offsetInCU: 0x157F1, offset: 0x157F1, size: 0x8, addend: 0x0, symName: __ZNSt3__17__sort5B8ue170006INS_17_ClassicAlgPolicyERPFbRKNS_4pairINS2_INS_6vectorIhNS_9allocatorIhEEEES6_EEiEESA_EPS8_EEvT1_SF_SF_SF_SF_T0_, symObjAddr: 0xFB6C, symBinAddr: 0x1000131CC, symSize: 0xF8 }
  - { offsetInCU: 0x1589E, offset: 0x1589E, size: 0x8, addend: 0x0, symName: __ZNSt3__123__debug_randomize_rangeB8ue170006INS_17_ClassicAlgPolicyEPNS_4pairINS2_INS_6vectorIhNS_9allocatorIhEEEES6_EEiEES9_EEvT0_T1_, symObjAddr: 0x100D8, symBinAddr: 0x100013738, symSize: 0x14 }
  - { offsetInCU: 0x158EF, offset: 0x158EF, size: 0x8, addend: 0x0, symName: __ZNSt3__119__partial_sort_implB8ue170006INS_17_ClassicAlgPolicyERPFbRKNS_4pairINS2_INS_6vectorIhNS_9allocatorIhEEEES6_EEiEESA_EPS8_SE_EET1_SF_SF_T2_OT0_, symObjAddr: 0x100EC, symBinAddr: 0x10001374C, symSize: 0x114 }
  - { offsetInCU: 0x15985, offset: 0x15985, size: 0x8, addend: 0x0, symName: __ZNSt3__111__make_heapB8ue170006INS_17_ClassicAlgPolicyERPFbRKNS_4pairINS2_INS_6vectorIhNS_9allocatorIhEEEES6_EEiEESA_EPS8_EEvT1_SF_OT0_, symObjAddr: 0x10200, symBinAddr: 0x100013860, symSize: 0xC0 }
  - { offsetInCU: 0x15A27, offset: 0x15A27, size: 0x8, addend: 0x0, symName: __ZNSt3__111__sort_heapB8ue170006INS_17_ClassicAlgPolicyERPFbRKNS_4pairINS2_INS_6vectorIhNS_9allocatorIhEEEES6_EEiEESA_EPS8_EEvT1_SF_OT0_, symObjAddr: 0x1053C, symBinAddr: 0x100013B9C, symSize: 0xA8 }
  - { offsetInCU: 0x15AC9, offset: 0x15AC9, size: 0x8, addend: 0x0, symName: __ZNSt3__110__pop_heapB8ue170006INS_17_ClassicAlgPolicyEPFbRKNS_4pairINS2_INS_6vectorIhNS_9allocatorIhEEEES6_EEiEESA_EPS8_EEvT1_SE_RT0_NS_15iterator_traitsISE_E15difference_typeE, symObjAddr: 0x105E4, symBinAddr: 0x100013C44, symSize: 0x138 }
  - { offsetInCU: 0x15B71, offset: 0x15B71, size: 0x8, addend: 0x0, symName: __ZNSt3__19__sift_upB8ue170006INS_17_ClassicAlgPolicyERPFbRKNS_4pairINS2_INS_6vectorIhNS_9allocatorIhEEEES6_EEiEESA_EPS8_EEvT1_SF_OT0_NS_15iterator_traitsISF_E15difference_typeE, symObjAddr: 0x10828, symBinAddr: 0x100013E88, symSize: 0x178 }
  - { offsetInCU: 0x15C11, offset: 0x15C11, size: 0x8, addend: 0x0, symName: __ZNSt3__122__populate_left_bitsetB8ue170006IRPFbRKNS_4pairINS1_INS_6vectorIhNS_9allocatorIhEEEES5_EEiEES9_EPS7_S7_EEvT0_T_RT1_Ry, symObjAddr: 0x109A0, symBinAddr: 0x100014000, symSize: 0xAC }
  - { offsetInCU: 0x15CCC, offset: 0x15CCC, size: 0x8, addend: 0x0, symName: __ZNSt3__123__populate_right_bitsetB8ue170006IRPFbRKNS_4pairINS1_INS_6vectorIhNS_9allocatorIhEEEES5_EEiEES9_EPS7_S7_EEvT0_T_RT1_Ry, symObjAddr: 0x10A4C, symBinAddr: 0x1000140AC, symSize: 0xA4 }
  - { offsetInCU: 0x15D87, offset: 0x15D87, size: 0x8, addend: 0x0, symName: __ZNSt3__117__swap_bitmap_posB8ue170006INS_17_ClassicAlgPolicyEPNS_4pairINS2_INS_6vectorIhNS_9allocatorIhEEEES6_EEiEEEEvT0_SA_RySB_, symObjAddr: 0x10AF0, symBinAddr: 0x100014150, symSize: 0x104 }
  - { offsetInCU: 0x15E28, offset: 0x15E28, size: 0x8, addend: 0x0, symName: __ZNSt3__133__bitset_partition_partial_blocksB8ue170006INS_17_ClassicAlgPolicyERPFbRKNS_4pairINS2_INS_6vectorIhNS_9allocatorIhEEEES6_EEiEESA_EPS8_S8_EEvRT1_SG_T0_RT2_RySK_, symObjAddr: 0x10BF4, symBinAddr: 0x100014254, symSize: 0x2F8 }
  - { offsetInCU: 0x15FA9, offset: 0x15FA9, size: 0x8, addend: 0x0, symName: __ZNSt3__19make_pairB8ue170006IRPNS_4pairINS1_INS_6vectorIhNS_9allocatorIhEEEES5_EEiEERbEENS1_INS_18__unwrap_ref_decayIT_E4typeENSB_IT0_E4typeEEEOSC_OSF_, symObjAddr: 0x110D4, symBinAddr: 0x100014734, symSize: 0x38 }
  - { offsetInCU: 0x15FF8, offset: 0x15FF8, size: 0x8, addend: 0x0, symName: __ZNSt3__112__libcpp_ctzB8ue170006Ey, symObjAddr: 0x1110C, symBinAddr: 0x10001476C, symSize: 0x20 }
  - { offsetInCU: 0x16024, offset: 0x16024, size: 0x8, addend: 0x0, symName: __ZNSt3__113__libcpp_blsrB8ue170006Ey, symObjAddr: 0x1112C, symBinAddr: 0x10001478C, symSize: 0x2C }
  - { offsetInCU: 0x16050, offset: 0x16050, size: 0x8, addend: 0x0, symName: __ZNSt3__112__libcpp_clzB8ue170006Ey, symObjAddr: 0x1118C, symBinAddr: 0x1000147EC, symSize: 0x1C }
  - { offsetInCU: 0x161A3, offset: 0x161A3, size: 0x8, addend: 0x0, symName: __ZNSt3__112__to_addressB8ue170006INS_11__wrap_iterIPNS_4pairINS2_INS_6vectorIhNS_9allocatorIhEEEES6_EEiEEEEvEEu7__decayIDTclsr19__to_address_helperIT_EE6__callclsr3stdE7declvalIRKSB_EEEEESD_, symObjAddr: 0x11244, symBinAddr: 0x1000148A4, symSize: 0x24 }
  - { offsetInCU: 0x1627E, offset: 0x1627E, size: 0x8, addend: 0x0, symName: __ZNSt3__119__allocate_at_leastB8ue170006INS_9allocatorINS_4pairINS_6vectorIhNS1_IhEEEES5_EEEEEENS_19__allocation_resultINS_16allocator_traitsIT_E7pointerEEERSA_m, symObjAddr: 0x119CC, symBinAddr: 0x10001502C, symSize: 0x40 }
  - { offsetInCU: 0x162C1, offset: 0x162C1, size: 0x8, addend: 0x0, symName: __ZNSt3__142__uninitialized_allocator_move_if_noexceptB8ue170006INS_9allocatorINS_4pairINS_6vectorIhNS1_IhEEEES5_EEEENS_16reverse_iteratorIPS6_EESA_SA_EET2_RT_T0_T1_SB_, symObjAddr: 0x11B84, symBinAddr: 0x1000151E4, symSize: 0x12C }
  - { offsetInCU: 0x16361, offset: 0x16361, size: 0x8, addend: 0x0, symName: __ZNSt3__14swapB8ue170006IPNS_4pairINS_6vectorIhNS_9allocatorIhEEEES5_EEEENS_9enable_ifIXaasr21is_move_constructibleIT_EE5valuesr18is_move_assignableIS9_EE5valueEvE4typeERS9_SC_, symObjAddr: 0x11CFC, symBinAddr: 0x10001535C, symSize: 0x3C }
  - { offsetInCU: 0x163B2, offset: 0x163B2, size: 0x8, addend: 0x0, symName: __ZNSt3__122__make_exception_guardB8ue170006INS_29_AllocatorDestroyRangeReverseINS_9allocatorINS_4pairINS_6vectorIhNS2_IhEEEES6_EEEENS_16reverse_iteratorIPS7_EEEEEENS_28__exception_guard_exceptionsIT_EESE_, symObjAddr: 0x11E00, symBinAddr: 0x100015460, symSize: 0x4C }
  - { offsetInCU: 0x163E8, offset: 0x163E8, size: 0x8, addend: 0x0, symName: __ZNSt3__1neB8ue170006IPNS_4pairINS_6vectorIhNS_9allocatorIhEEEES5_EES7_EEbRKNS_16reverse_iteratorIT_EERKNS8_IT0_EE, symObjAddr: 0x11E90, symBinAddr: 0x1000154F0, symSize: 0x48 }
  - { offsetInCU: 0x16434, offset: 0x16434, size: 0x8, addend: 0x0, symName: __ZNSt3__112__to_addressB8ue170006INS_16reverse_iteratorIPNS_4pairINS_6vectorIhNS_9allocatorIhEEEES6_EEEEvEEu7__decayIDTclsr19__to_address_helperIT_EE6__callclsr3stdE7declvalIRKSA_EEEEESC_, symObjAddr: 0x11F0C, symBinAddr: 0x10001556C, symSize: 0x24 }
  - { offsetInCU: 0x16493, offset: 0x16493, size: 0x8, addend: 0x0, symName: __ZNSt3__119__allocator_destroyB8ue170006INS_9allocatorINS_4pairINS_6vectorIhNS1_IhEEEES5_EEEENS_16reverse_iteratorINS8_IPS6_EEEESB_EEvRT_T0_T1_, symObjAddr: 0x121EC, symBinAddr: 0x10001584C, symSize: 0x70 }
  - { offsetInCU: 0x164F8, offset: 0x164F8, size: 0x8, addend: 0x0, symName: __ZNSt3__1neB8ue170006INS_16reverse_iteratorIPNS_4pairINS_6vectorIhNS_9allocatorIhEEEES6_EEEES9_EEbRKNS1_IT_EERKNS1_IT0_EE, symObjAddr: 0x12298, symBinAddr: 0x1000158F8, symSize: 0x60 }
  - { offsetInCU: 0x16544, offset: 0x16544, size: 0x8, addend: 0x0, symName: __ZNSt3__112__to_addressB8ue170006INS_16reverse_iteratorINS1_IPNS_4pairINS_6vectorIhNS_9allocatorIhEEEES6_EEEEEEvEEu7__decayIDTclsr19__to_address_helperIT_EE6__callclsr3stdE7declvalIRKSB_EEEEESD_, symObjAddr: 0x122F8, symBinAddr: 0x100015958, symSize: 0x24 }
  - { offsetInCU: 0x165A3, offset: 0x165A3, size: 0x8, addend: 0x0, symName: __ZNSt3__18distanceB8ue170006IPhEENS_15iterator_traitsIT_E15difference_typeES3_S3_, symObjAddr: 0x12860, symBinAddr: 0x100015EC0, symSize: 0x2C }
  - { offsetInCU: 0x165E6, offset: 0x165E6, size: 0x8, addend: 0x0, symName: __ZNSt3__14nextB8ue170006IPhEENS_9enable_ifIXsr29__has_input_iterator_categoryIT_EE5valueES3_E4typeES3_NS_15iterator_traitsIS3_E15difference_typeE, symObjAddr: 0x1288C, symBinAddr: 0x100015EEC, symSize: 0x34 }
  - { offsetInCU: 0x16629, offset: 0x16629, size: 0x8, addend: 0x0, symName: __ZNSt3__121__convert_to_integralB8ue170006El, symObjAddr: 0x12944, symBinAddr: 0x100015FA4, symSize: 0x14 }
  - { offsetInCU: 0x16655, offset: 0x16655, size: 0x8, addend: 0x0, symName: __ZNSt3__19__advanceB8ue170006IPhEEvRT_NS_15iterator_traitsIS2_E15difference_typeENS_26random_access_iterator_tagE, symObjAddr: 0x12958, symBinAddr: 0x100015FB8, symSize: 0x28 }
  - { offsetInCU: 0x1669E, offset: 0x1669E, size: 0x8, addend: 0x0, symName: __ZNSt3__110__distanceB8ue170006IPhEENS_15iterator_traitsIT_E15difference_typeES3_S3_NS_26random_access_iterator_tagE, symObjAddr: 0x12980, symBinAddr: 0x100015FE0, symSize: 0x20 }
  - { offsetInCU: 0x166EB, offset: 0x166EB, size: 0x8, addend: 0x0, symName: __ZNSt3__17getlineB8ue170006IcNS_11char_traitsIcEENS_9allocatorIcEEEERNS_13basic_istreamIT_T0_EES9_RNS_12basic_stringIS6_S7_T1_EES6_, symObjAddr: 0x12A28, symBinAddr: 0x100016088, symSize: 0x238 }
  - { offsetInCU: 0x17569, offset: 0x17569, size: 0x8, addend: 0x0, symName: __ZSt28__throw_bad_array_new_lengthB8ue170006v, symObjAddr: 0x47E4, symBinAddr: 0x100007E44, symSize: 0x34 }
  - { offsetInCU: 0x17FC0, offset: 0x17FC0, size: 0x8, addend: 0x0, symName: __ZNSt3__16vectorINS0_IhNS_9allocatorIhEEEENS1_IS3_EEE26__swap_out_circular_bufferERNS_14__split_bufferIS3_RS4_EE, symObjAddr: 0x4108, symBinAddr: 0x100007768, symSize: 0x110 }
  - { offsetInCU: 0x18380, offset: 0x18380, size: 0x8, addend: 0x0, symName: __ZNSt3__16vectorIhNS_9allocatorIhEEE26__swap_out_circular_bufferERNS_14__split_bufferIhRS2_EE, symObjAddr: 0x9CAC, symBinAddr: 0x10000D30C, symSize: 0x110 }
  - { offsetInCU: 0x1890A, offset: 0x1890A, size: 0x8, addend: 0x0, symName: __ZNSt3__16vectorINS_4pairINS0_IhNS_9allocatorIhEEEES4_EENS2_IS5_EEE26__swap_out_circular_bufferERNS_14__split_bufferIS5_RS6_EE, symObjAddr: 0x1165C, symBinAddr: 0x100014CBC, symSize: 0x110 }
  - { offsetInCU: 0x1ACAE, offset: 0x1ACAE, size: 0x8, addend: 0x0, symName: __ZNSt3__13mapIiNS_4pairINS_6vectorIhNS_9allocatorIhEEEES5_EENS_4lessIiEENS3_INS1_IKiS6_EEEEEC1B8ue170006Ev, symObjAddr: 0x0, symBinAddr: 0x100003660, symSize: 0x2C }
  - { offsetInCU: 0x1ACD8, offset: 0x1ACD8, size: 0x8, addend: 0x0, symName: __ZNSt3__13mapIiNS_4pairINS_6vectorIhNS_9allocatorIhEEEES5_EENS_4lessIiEENS3_INS1_IKiS6_EEEEED1B8ue170006Ev, symObjAddr: 0x2C, symBinAddr: 0x10000368C, symSize: 0x2C }
  - { offsetInCU: 0x1AD02, offset: 0x1AD02, size: 0x8, addend: 0x0, symName: _main, symObjAddr: 0x58, symBinAddr: 0x1000036B8, symSize: 0x3E4 }
  - { offsetInCU: 0x1AE06, offset: 0x1AE06, size: 0x8, addend: 0x0, symName: __Z6getStrRKNSt3__112basic_stringIcNS_11char_traitsIcEENS_9allocatorIcEEEE, symObjAddr: 0x43C, symBinAddr: 0x100003A9C, symSize: 0xC8 }
  - { offsetInCU: 0x1AE47, offset: 0x1AE47, size: 0x8, addend: 0x0, symName: __ZNSt3__112basic_stringIcNS_11char_traitsIcEENS_9allocatorIcEEEC1B8ue170006ILi0EEEPKc, symObjAddr: 0x504, symBinAddr: 0x100003B64, symSize: 0x34 }
  - { offsetInCU: 0x1AE86, offset: 0x1AE86, size: 0x8, addend: 0x0, symName: __ZNKSt3__112basic_stringIcNS_11char_traitsIcEENS_9allocatorIcEEE5emptyB8ue170006Ev, symObjAddr: 0x538, symBinAddr: 0x100003B98, symSize: 0x30 }
  - { offsetInCU: 0x1AEAC, offset: 0x1AEAC, size: 0x8, addend: 0x0, symName: __ZNSt3__16vectorINS0_IhNS_9allocatorIhEEEENS1_IS3_EEEC1B8ue170006Ev, symObjAddr: 0x568, symBinAddr: 0x100003BC8, symSize: 0x2C }
  - { offsetInCU: 0x1AED6, offset: 0x1AED6, size: 0x8, addend: 0x0, symName: __ZNKSt3__112basic_stringIcNS_11char_traitsIcEENS_9allocatorIcEEE6lengthB8ue170006Ev, symObjAddr: 0x594, symBinAddr: 0x100003BF4, symSize: 0x24 }
  - { offsetInCU: 0x1AEFC, offset: 0x1AEFC, size: 0x8, addend: 0x0, symName: __ZNSt3__16vectorINS0_IhNS_9allocatorIhEEEENS1_IS3_EEE9push_backB8ue170006EOS3_, symObjAddr: 0x5B8, symBinAddr: 0x100003C18, symSize: 0x6C }
  - { offsetInCU: 0x1AF32, offset: 0x1AF32, size: 0x8, addend: 0x0, symName: __Z6encodeDi, symObjAddr: 0x624, symBinAddr: 0x100003C84, symSize: 0x298 }
  - { offsetInCU: 0x1AF6E, offset: 0x1AF6E, size: 0x8, addend: 0x0, symName: __ZNSt3__112basic_stringIcNS_11char_traitsIcEENS_9allocatorIcEEEixB8ue170006Em, symObjAddr: 0x8BC, symBinAddr: 0x100003F1C, symSize: 0x30 }
  - { offsetInCU: 0x1AFA3, offset: 0x1AFA3, size: 0x8, addend: 0x0, symName: __ZNSt3__16vectorIhNS_9allocatorIhEEED1B8ue170006Ev, symObjAddr: 0x8EC, symBinAddr: 0x100003F4C, symSize: 0x2C }
  - { offsetInCU: 0x1AFCD, offset: 0x1AFCD, size: 0x8, addend: 0x0, symName: __ZNSt3__16vectorINS0_IhNS_9allocatorIhEEEENS1_IS3_EEE5beginB8ue170006Ev, symObjAddr: 0x918, symBinAddr: 0x100003F78, symSize: 0x30 }
  - { offsetInCU: 0x1AFF5, offset: 0x1AFF5, size: 0x8, addend: 0x0, symName: __ZNSt3__16vectorINS0_IhNS_9allocatorIhEEEENS1_IS3_EEE3endB8ue170006Ev, symObjAddr: 0x948, symBinAddr: 0x100003FA8, symSize: 0x30 }
  - { offsetInCU: 0x1B01D, offset: 0x1B01D, size: 0x8, addend: 0x0, symName: __ZNKSt3__111__wrap_iterIPNS_6vectorIhNS_9allocatorIhEEEEEdeB8ue170006Ev, symObjAddr: 0x9AC, symBinAddr: 0x10000400C, symSize: 0x18 }
  - { offsetInCU: 0x1B043, offset: 0x1B043, size: 0x8, addend: 0x0, symName: __ZNSt3__16vectorIhNS_9allocatorIhEEEC1ERKS3_, symObjAddr: 0x9C4, symBinAddr: 0x100004024, symSize: 0x34 }
  - { offsetInCU: 0x1B07D, offset: 0x1B07D, size: 0x8, addend: 0x0, symName: __Z11print_tokenRNSt3__16vectorIhNS_9allocatorIhEEEE, symObjAddr: 0x9F8, symBinAddr: 0x100004058, symSize: 0xEC }
  - { offsetInCU: 0x1B0C2, offset: 0x1B0C2, size: 0x8, addend: 0x0, symName: __ZNSt3__113basic_ostreamIcNS_11char_traitsIcEEElsB8ue170006EPFRS3_S4_E, symObjAddr: 0xAE4, symBinAddr: 0x100004144, symSize: 0x2C }
  - { offsetInCU: 0x1B0F6, offset: 0x1B0F6, size: 0x8, addend: 0x0, symName: __ZNSt3__111__wrap_iterIPNS_6vectorIhNS_9allocatorIhEEEEEppB8ue170006Ev, symObjAddr: 0xB68, symBinAddr: 0x1000041C8, symSize: 0x20 }
  - { offsetInCU: 0x1B11B, offset: 0x1B11B, size: 0x8, addend: 0x0, symName: __Z8tokenizeNSt3__112basic_stringIcNS_11char_traitsIcEENS_9allocatorIcEEEE, symObjAddr: 0xB88, symBinAddr: 0x1000041E8, symSize: 0x318 }
  - { offsetInCU: 0x1B20B, offset: 0x1B20B, size: 0x8, addend: 0x0, symName: __ZNKSt3__16vectorINS0_IhNS_9allocatorIhEEEENS1_IS3_EEE4sizeB8ue170006Ev, symObjAddr: 0xF1C, symBinAddr: 0x10000457C, symSize: 0x28 }
  - { offsetInCU: 0x1B231, offset: 0x1B231, size: 0x8, addend: 0x0, symName: __ZNSt3__16vectorINS0_IhNS_9allocatorIhEEEENS1_IS3_EEED1B8ue170006Ev, symObjAddr: 0xF44, symBinAddr: 0x1000045A4, symSize: 0x2C }
  - { offsetInCU: 0x1B25B, offset: 0x1B25B, size: 0x8, addend: 0x0, symName: __ZNSt3__16vectorINS0_IhNS_9allocatorIhEEEENS1_IS3_EEE9push_backB8ue170006ERKS3_, symObjAddr: 0xF70, symBinAddr: 0x1000045D0, symSize: 0x6C }
  - { offsetInCU: 0x1B291, offset: 0x1B291, size: 0x8, addend: 0x0, symName: __Z9get_pairsRNSt3__16vectorINS0_IhNS_9allocatorIhEEEENS1_IS3_EEEE, symObjAddr: 0xFDC, symBinAddr: 0x10000463C, symSize: 0x148 }
  - { offsetInCU: 0x1B2FC, offset: 0x1B2FC, size: 0x8, addend: 0x0, symName: __Z8frequentRKNSt3__16vectorINS_4pairINS0_IhNS_9allocatorIhEEEES4_EENS2_IS5_EEEE, symObjAddr: 0x1124, symBinAddr: 0x100004784, symSize: 0x210 }
  - { offsetInCU: 0x1B3F2, offset: 0x1B3F2, size: 0x8, addend: 0x0, symName: __ZNSt3__16vectorINS_4pairINS0_IhNS_9allocatorIhEEEES4_EENS2_IS5_EEEaSB8ue170006EOS7_, symObjAddr: 0x1334, symBinAddr: 0x100004994, symSize: 0x34 }
  - { offsetInCU: 0x1B429, offset: 0x1B429, size: 0x8, addend: 0x0, symName: __ZNSt3__16vectorINS_4pairINS0_IhNS_9allocatorIhEEEES4_EENS2_IS5_EEED1B8ue170006Ev, symObjAddr: 0x1368, symBinAddr: 0x1000049C8, symSize: 0x2C }
  - { offsetInCU: 0x1B453, offset: 0x1B453, size: 0x8, addend: 0x0, symName: __ZNSt3__16vectorINS0_IhNS_9allocatorIhEEEENS1_IS3_EEEC1ERKS5_, symObjAddr: 0x1394, symBinAddr: 0x1000049F4, symSize: 0x34 }
  - { offsetInCU: 0x1B48D, offset: 0x1B48D, size: 0x8, addend: 0x0, symName: __Z5mergeRNSt3__16vectorINS0_IhNS_9allocatorIhEEEENS1_IS3_EEEEiNS_4pairIS3_S3_EE, symObjAddr: 0x13C8, symBinAddr: 0x100004A28, symSize: 0x1D4 }
  - { offsetInCU: 0x1B516, offset: 0x1B516, size: 0x8, addend: 0x0, symName: __ZNSt3__16vectorINS_4pairINS0_IhNS_9allocatorIhEEEES4_EENS2_IS5_EEEixB8ue170006Em, symObjAddr: 0x159C, symBinAddr: 0x100004BFC, symSize: 0x2C }
  - { offsetInCU: 0x1B54D, offset: 0x1B54D, size: 0x8, addend: 0x0, symName: __ZNSt3__14pairINS_6vectorIhNS_9allocatorIhEEEES4_EC1B8ue170006ERKS5_, symObjAddr: 0x15C8, symBinAddr: 0x100004C28, symSize: 0x34 }
  - { offsetInCU: 0x1B581, offset: 0x1B581, size: 0x8, addend: 0x0, symName: __ZNSt3__16vectorINS0_IhNS_9allocatorIhEEEENS1_IS3_EEEaSB8ue170006EOS5_, symObjAddr: 0x15FC, symBinAddr: 0x100004C5C, symSize: 0x34 }
  - { offsetInCU: 0x1B5B8, offset: 0x1B5B8, size: 0x8, addend: 0x0, symName: __ZNSt3__14pairINS_6vectorIhNS_9allocatorIhEEEES4_ED1Ev, symObjAddr: 0x1630, symBinAddr: 0x100004C90, symSize: 0x2C }
  - { offsetInCU: 0x1B5E4, offset: 0x1B5E4, size: 0x8, addend: 0x0, symName: __ZNSt3__13mapIiNS_4pairINS_6vectorIhNS_9allocatorIhEEEES5_EENS_4lessIiEENS3_INS1_IKiS6_EEEEEixERS9_, symObjAddr: 0x165C, symBinAddr: 0x100004CBC, symSize: 0x80 }
  - { offsetInCU: 0x1B61B, offset: 0x1B61B, size: 0x8, addend: 0x0, symName: __ZNSt3__14pairINS_6vectorIhNS_9allocatorIhEEEES4_EaSB8ue170006ERKS5_, symObjAddr: 0x16DC, symBinAddr: 0x100004D3C, symSize: 0x48 }
  - { offsetInCU: 0x1B650, offset: 0x1B650, size: 0x8, addend: 0x0, symName: __ZNSt3__16vectorINS0_IhNS_9allocatorIhEEEENS1_IS3_EEEixB8ue170006Em, symObjAddr: 0x17C0, symBinAddr: 0x100004E20, symSize: 0x2C }
  - { offsetInCU: 0x1B687, offset: 0x1B687, size: 0x8, addend: 0x0, symName: __ZNSt3__16vectorIhNS_9allocatorIhEEEC1B8ue170006Ev, symObjAddr: 0x17EC, symBinAddr: 0x100004E4C, symSize: 0x2C }
  - { offsetInCU: 0x1B6B1, offset: 0x1B6B1, size: 0x8, addend: 0x0, symName: __ZNSt3__16vectorIhNS_9allocatorIhEEE9push_backB8ue170006EOh, symObjAddr: 0x1818, symBinAddr: 0x100004E78, symSize: 0x6C }
  - { offsetInCU: 0x1B6E8, offset: 0x1B6E8, size: 0x8, addend: 0x0, symName: __ZNKSt3__16vectorIhNS_9allocatorIhEEE4sizeB8ue170006Ev, symObjAddr: 0x1884, symBinAddr: 0x100004EE4, symSize: 0x20 }
  - { offsetInCU: 0x1B70E, offset: 0x1B70E, size: 0x8, addend: 0x0, symName: __ZNSt3__16vectorIhNS_9allocatorIhEEEixB8ue170006Em, symObjAddr: 0x18D8, symBinAddr: 0x100004F38, symSize: 0x24 }
  - { offsetInCU: 0x1B744, offset: 0x1B744, size: 0x8, addend: 0x0, symName: __Z15valueComparatorRKNSt3__14pairINS0_INS_6vectorIhNS_9allocatorIhEEEES4_EEiEES8_, symObjAddr: 0x18FC, symBinAddr: 0x100004F5C, symSize: 0x30 }
  - { offsetInCU: 0x1B77F, offset: 0x1B77F, size: 0x8, addend: 0x0, symName: __ZNSt3__13mapINS_4pairINS_6vectorIhNS_9allocatorIhEEEES5_EEiNS_4lessIS6_EENS3_INS1_IKS6_iEEEEEC1B8ue170006Ev, symObjAddr: 0x192C, symBinAddr: 0x100004F8C, symSize: 0x2C }
  - { offsetInCU: 0x1B7A9, offset: 0x1B7A9, size: 0x8, addend: 0x0, symName: __ZNSt3__16vectorINS_4pairINS0_IhNS_9allocatorIhEEEES4_EENS2_IS5_EEEC1B8ue170006Ev, symObjAddr: 0x1958, symBinAddr: 0x100004FB8, symSize: 0x2C }
  - { offsetInCU: 0x1B7D3, offset: 0x1B7D3, size: 0x8, addend: 0x0, symName: __ZNKSt3__16vectorINS_4pairINS0_IhNS_9allocatorIhEEEES4_EENS2_IS5_EEE5beginB8ue170006Ev, symObjAddr: 0x1984, symBinAddr: 0x100004FE4, symSize: 0x30 }
  - { offsetInCU: 0x1B7FB, offset: 0x1B7FB, size: 0x8, addend: 0x0, symName: __ZNKSt3__16vectorINS_4pairINS0_IhNS_9allocatorIhEEEES4_EENS2_IS5_EEE3endB8ue170006Ev, symObjAddr: 0x19B4, symBinAddr: 0x100005014, symSize: 0x30 }
  - { offsetInCU: 0x1B823, offset: 0x1B823, size: 0x8, addend: 0x0, symName: __ZNKSt3__111__wrap_iterIPKNS_4pairINS_6vectorIhNS_9allocatorIhEEEES5_EEEdeB8ue170006Ev, symObjAddr: 0x1A18, symBinAddr: 0x100005078, symSize: 0x18 }
  - { offsetInCU: 0x1B849, offset: 0x1B849, size: 0x8, addend: 0x0, symName: __ZNSt3__13mapINS_4pairINS_6vectorIhNS_9allocatorIhEEEES5_EEiNS_4lessIS6_EENS3_INS1_IKS6_iEEEEEixERS9_, symObjAddr: 0x1A30, symBinAddr: 0x100005090, symSize: 0x80 }
  - { offsetInCU: 0x1B880, offset: 0x1B880, size: 0x8, addend: 0x0, symName: __ZNSt3__111__wrap_iterIPKNS_4pairINS_6vectorIhNS_9allocatorIhEEEES5_EEEppB8ue170006Ev, symObjAddr: 0x1AB0, symBinAddr: 0x100005110, symSize: 0x20 }
  - { offsetInCU: 0x1B8A6, offset: 0x1B8A6, size: 0x8, addend: 0x0, symName: __ZNSt3__13mapINS_4pairINS_6vectorIhNS_9allocatorIhEEEES5_EEiNS_4lessIS6_EENS3_INS1_IKS6_iEEEEE5beginB8ue170006Ev, symObjAddr: 0x1AD0, symBinAddr: 0x100005130, symSize: 0x38 }
  - { offsetInCU: 0x1B8CC, offset: 0x1B8CC, size: 0x8, addend: 0x0, symName: __ZNSt3__13mapINS_4pairINS_6vectorIhNS_9allocatorIhEEEES5_EEiNS_4lessIS6_EENS3_INS1_IKS6_iEEEEE3endB8ue170006Ev, symObjAddr: 0x1B08, symBinAddr: 0x100005168, symSize: 0x38 }
  - { offsetInCU: 0x1B8F2, offset: 0x1B8F2, size: 0x8, addend: 0x0, symName: __ZNSt3__16vectorINS_4pairINS1_INS0_IhNS_9allocatorIhEEEES4_EEiEENS2_IS6_EEEC1INS_14__map_iteratorINS_15__tree_iteratorINS_12__value_typeIS5_iEEPNS_11__tree_nodeISD_PvEElEEEELi0EEET_SK_, symObjAddr: 0x1B40, symBinAddr: 0x1000051A0, symSize: 0x3C }
  - { offsetInCU: 0x1B94B, offset: 0x1B94B, size: 0x8, addend: 0x0, symName: __ZNSt3__16vectorINS_4pairINS1_INS0_IhNS_9allocatorIhEEEES4_EEiEENS2_IS6_EEE5beginB8ue170006Ev, symObjAddr: 0x1BC4, symBinAddr: 0x100005224, symSize: 0x30 }
  - { offsetInCU: 0x1B973, offset: 0x1B973, size: 0x8, addend: 0x0, symName: __ZNSt3__16vectorINS_4pairINS1_INS0_IhNS_9allocatorIhEEEES4_EEiEENS2_IS6_EEE3endB8ue170006Ev, symObjAddr: 0x1BF4, symBinAddr: 0x100005254, symSize: 0x30 }
  - { offsetInCU: 0x1B99B, offset: 0x1B99B, size: 0x8, addend: 0x0, symName: __ZNKSt3__111__wrap_iterIPNS_4pairINS1_INS_6vectorIhNS_9allocatorIhEEEES5_EEiEEEdeB8ue170006Ev, symObjAddr: 0x1C58, symBinAddr: 0x1000052B8, symSize: 0x18 }
  - { offsetInCU: 0x1B9C1, offset: 0x1B9C1, size: 0x8, addend: 0x0, symName: __ZNSt3__16vectorINS_4pairINS0_IhNS_9allocatorIhEEEES4_EENS2_IS5_EEE9push_backB8ue170006ERKS5_, symObjAddr: 0x1C70, symBinAddr: 0x1000052D0, symSize: 0x6C }
  - { offsetInCU: 0x1B9F8, offset: 0x1B9F8, size: 0x8, addend: 0x0, symName: __ZNSt3__111__wrap_iterIPNS_4pairINS1_INS_6vectorIhNS_9allocatorIhEEEES5_EEiEEEppB8ue170006Ev, symObjAddr: 0x1CDC, symBinAddr: 0x10000533C, symSize: 0x20 }
  - { offsetInCU: 0x1BA1E, offset: 0x1BA1E, size: 0x8, addend: 0x0, symName: __ZNSt3__16vectorINS_4pairINS1_INS0_IhNS_9allocatorIhEEEES4_EEiEENS2_IS6_EEED1B8ue170006Ev, symObjAddr: 0x1CFC, symBinAddr: 0x10000535C, symSize: 0x2C }
  - { offsetInCU: 0x1BA48, offset: 0x1BA48, size: 0x8, addend: 0x0, symName: __ZNSt3__13mapINS_4pairINS_6vectorIhNS_9allocatorIhEEEES5_EEiNS_4lessIS6_EENS3_INS1_IKS6_iEEEEED1B8ue170006Ev, symObjAddr: 0x1D28, symBinAddr: 0x100005388, symSize: 0x2C }
  - { offsetInCU: 0x1BA72, offset: 0x1BA72, size: 0x8, addend: 0x0, symName: __ZNSt3__14pairINS_6vectorIhNS_9allocatorIhEEEES4_EC1B8ue170006ILb1ELPv0EEEv, symObjAddr: 0x1D54, symBinAddr: 0x1000053B4, symSize: 0x2C }
  - { offsetInCU: 0x1BAAC, offset: 0x1BAAC, size: 0x8, addend: 0x0, symName: __ZNSt3__16vectorIhNS_9allocatorIhEEEaSB8ue170006ERKS3_, symObjAddr: 0x1D80, symBinAddr: 0x1000053E0, symSize: 0x68 }
  - { offsetInCU: 0x1BAE2, offset: 0x1BAE2, size: 0x8, addend: 0x0, symName: __Z6decodeRKNSt3__16vectorIhNS_9allocatorIhEEEE, symObjAddr: 0x1DE8, symBinAddr: 0x100005448, symSize: 0x3CC }
  - { offsetInCU: 0x1BB1D, offset: 0x1BB1D, size: 0x8, addend: 0x0, symName: __ZNKSt3__16vectorIhNS_9allocatorIhEEE5emptyB8ue170006Ev, symObjAddr: 0x21B4, symBinAddr: 0x100005814, symSize: 0x28 }
  - { offsetInCU: 0x1BB43, offset: 0x1BB43, size: 0x8, addend: 0x0, symName: __ZNKSt3__16vectorIhNS_9allocatorIhEEEixB8ue170006Em, symObjAddr: 0x21DC, symBinAddr: 0x10000583C, symSize: 0x24 }
  - { offsetInCU: 0x1BB7A, offset: 0x1BB7A, size: 0x8, addend: 0x0, symName: __ZNSt3__112basic_stringIcNS_11char_traitsIcEENS_9allocatorIcEEEC1B8ue170006Ev, symObjAddr: 0x224C, symBinAddr: 0x1000058AC, symSize: 0x2C }
  - { offsetInCU: 0x1BBA4, offset: 0x1BBA4, size: 0x8, addend: 0x0, symName: __ZNSt3__114numeric_limitsIlE3maxB8ue170006Ev, symObjAddr: 0x22D4, symBinAddr: 0x100005934, symSize: 0x14 }
  - { offsetInCU: 0x1BBB8, offset: 0x1BBB8, size: 0x8, addend: 0x0, symName: __ZNKSt3__111__wrap_iterIPNS_6vectorIhNS_9allocatorIhEEEEE4baseB8ue170006Ev, symObjAddr: 0x2330, symBinAddr: 0x100005990, symSize: 0x18 }
  - { offsetInCU: 0x1BBDE, offset: 0x1BBDE, size: 0x8, addend: 0x0, symName: __ZNSt3__14pairINS_6vectorIhNS_9allocatorIhEEEES4_EC2B8ue170006ERKS5_, symObjAddr: 0x2348, symBinAddr: 0x1000059A8, symSize: 0x70 }
  - { offsetInCU: 0x1BC12, offset: 0x1BC12, size: 0x8, addend: 0x0, symName: __ZNSt3__14pairINS_6vectorIhNS_9allocatorIhEEEES4_ED2Ev, symObjAddr: 0x23B8, symBinAddr: 0x100005A18, symSize: 0x38 }
  - { offsetInCU: 0x1BC3E, offset: 0x1BC3E, size: 0x8, addend: 0x0, symName: __ZNKSt3__111__wrap_iterIPKNS_4pairINS_6vectorIhNS_9allocatorIhEEEES5_EEE4baseB8ue170006Ev, symObjAddr: 0x2438, symBinAddr: 0x100005A98, symSize: 0x18 }
  - { offsetInCU: 0x1BC64, offset: 0x1BC64, size: 0x8, addend: 0x0, symName: __ZNKSt3__111__wrap_iterIPNS_4pairINS1_INS_6vectorIhNS_9allocatorIhEEEES5_EEiEEE4baseB8ue170006Ev, symObjAddr: 0x2498, symBinAddr: 0x100005AF8, symSize: 0x18 }
  - { offsetInCU: 0x1BC8A, offset: 0x1BC8A, size: 0x8, addend: 0x0, symName: __ZNSt3__14pairINS_6vectorIhNS_9allocatorIhEEEES4_EC2B8ue170006ILb1ELPv0EEEv, symObjAddr: 0x24B0, symBinAddr: 0x100005B10, symSize: 0x38 }
  - { offsetInCU: 0x1BCC4, offset: 0x1BCC4, size: 0x8, addend: 0x0, symName: __ZNSt3__123__libcpp_numeric_limitsIlLb1EE3maxB8ue170006Ev, symObjAddr: 0x24E8, symBinAddr: 0x100005B48, symSize: 0x8 }
  - { offsetInCU: 0x1BCD8, offset: 0x1BCD8, size: 0x8, addend: 0x0, symName: __ZNSt3__13mapIiNS_4pairINS_6vectorIhNS_9allocatorIhEEEES5_EENS_4lessIiEENS3_INS1_IKiS6_EEEEEC2B8ue170006Ev, symObjAddr: 0x24F0, symBinAddr: 0x100005B50, symSize: 0x40 }
  - { offsetInCU: 0x1BD02, offset: 0x1BD02, size: 0x8, addend: 0x0, symName: __ZNSt3__119__map_value_compareIiNS_12__value_typeIiNS_4pairINS_6vectorIhNS_9allocatorIhEEEES6_EEEENS_4lessIiEELb1EEC1B8ue170006ESA_, symObjAddr: 0x2530, symBinAddr: 0x100005B90, symSize: 0x2C }
  - { offsetInCU: 0x1BD3B, offset: 0x1BD3B, size: 0x8, addend: 0x0, symName: __ZNSt3__16__treeINS_12__value_typeIiNS_4pairINS_6vectorIhNS_9allocatorIhEEEES6_EEEENS_19__map_value_compareIiS8_NS_4lessIiEELb1EEENS4_IS8_EEEC1ERKSC_, symObjAddr: 0x255C, symBinAddr: 0x100005BBC, symSize: 0x34 }
  - { offsetInCU: 0x1BD76, offset: 0x1BD76, size: 0x8, addend: 0x0, symName: __ZNSt3__119__map_value_compareIiNS_12__value_typeIiNS_4pairINS_6vectorIhNS_9allocatorIhEEEES6_EEEENS_4lessIiEELb1EEC2B8ue170006ESA_, symObjAddr: 0x2590, symBinAddr: 0x100005BF0, symSize: 0x14 }
  - { offsetInCU: 0x1BDAF, offset: 0x1BDAF, size: 0x8, addend: 0x0, symName: __ZNSt3__16__treeINS_12__value_typeIiNS_4pairINS_6vectorIhNS_9allocatorIhEEEES6_EEEENS_19__map_value_compareIiS8_NS_4lessIiEELb1EEENS4_IS8_EEEC2ERKSC_, symObjAddr: 0x25A4, symBinAddr: 0x100005C04, symSize: 0x7C }
  - { offsetInCU: 0x1BDEA, offset: 0x1BDEA, size: 0x8, addend: 0x0, symName: __ZNSt3__117__compressed_pairINS_15__tree_end_nodeIPNS_16__tree_node_baseIPvEEEENS_9allocatorINS_11__tree_nodeINS_12__value_typeIiNS_4pairINS_6vectorIhNS7_IhEEEESD_EEEES3_EEEEEC1B8ue170006ILb1EvEEv, symObjAddr: 0x2620, symBinAddr: 0x100005C80, symSize: 0x2C }
  - { offsetInCU: 0x1BE24, offset: 0x1BE24, size: 0x8, addend: 0x0, symName: __ZNSt3__117__compressed_pairImNS_19__map_value_compareIiNS_12__value_typeIiNS_4pairINS_6vectorIhNS_9allocatorIhEEEES7_EEEENS_4lessIiEELb1EEEEC1B8ue170006IiRKSC_EEOT_OT0_, symObjAddr: 0x2658, symBinAddr: 0x100005CB8, symSize: 0x3C }
  - { offsetInCU: 0x1BE7C, offset: 0x1BE7C, size: 0x8, addend: 0x0, symName: __ZNSt3__16__treeINS_12__value_typeIiNS_4pairINS_6vectorIhNS_9allocatorIhEEEES6_EEEENS_19__map_value_compareIiS8_NS_4lessIiEELb1EEENS4_IS8_EEE10__end_nodeB8ue170006Ev, symObjAddr: 0x2694, symBinAddr: 0x100005CF4, symSize: 0x2C }
  - { offsetInCU: 0x1BEA2, offset: 0x1BEA2, size: 0x8, addend: 0x0, symName: __ZNSt3__16__treeINS_12__value_typeIiNS_4pairINS_6vectorIhNS_9allocatorIhEEEES6_EEEENS_19__map_value_compareIiS8_NS_4lessIiEELb1EEENS4_IS8_EEE12__begin_nodeB8ue170006Ev, symObjAddr: 0x26C0, symBinAddr: 0x100005D20, symSize: 0x14 }
  - { offsetInCU: 0x1BEC8, offset: 0x1BEC8, size: 0x8, addend: 0x0, symName: __ZNSt3__117__compressed_pairINS_15__tree_end_nodeIPNS_16__tree_node_baseIPvEEEENS_9allocatorINS_11__tree_nodeINS_12__value_typeIiNS_4pairINS_6vectorIhNS7_IhEEEESD_EEEES3_EEEEEC2B8ue170006ILb1EvEEv, symObjAddr: 0x26D4, symBinAddr: 0x100005D34, symSize: 0x34 }
  - { offsetInCU: 0x1BEFD, offset: 0x1BEFD, size: 0x8, addend: 0x0, symName: __ZNSt3__122__compressed_pair_elemINS_15__tree_end_nodeIPNS_16__tree_node_baseIPvEEEELi0ELb0EEC2B8ue170006ENS_16__value_init_tagE, symObjAddr: 0x2708, symBinAddr: 0x100005D68, symSize: 0x2C }
  - { offsetInCU: 0x1BF31, offset: 0x1BF31, size: 0x8, addend: 0x0, symName: __ZNSt3__122__compressed_pair_elemINS_9allocatorINS_11__tree_nodeINS_12__value_typeIiNS_4pairINS_6vectorIhNS1_IhEEEES7_EEEEPvEEEELi1ELb1EEC2B8ue170006ENS_16__value_init_tagE, symObjAddr: 0x2734, symBinAddr: 0x100005D94, symSize: 0x2C }
  - { offsetInCU: 0x1BF65, offset: 0x1BF65, size: 0x8, addend: 0x0, symName: __ZNSt3__115__tree_end_nodeIPNS_16__tree_node_baseIPvEEEC1B8ue170006Ev, symObjAddr: 0x2760, symBinAddr: 0x100005DC0, symSize: 0x2C }
  - { offsetInCU: 0x1BF8F, offset: 0x1BF8F, size: 0x8, addend: 0x0, symName: __ZNSt3__115__tree_end_nodeIPNS_16__tree_node_baseIPvEEEC2B8ue170006Ev, symObjAddr: 0x278C, symBinAddr: 0x100005DEC, symSize: 0x18 }
  - { offsetInCU: 0x1BFB9, offset: 0x1BFB9, size: 0x8, addend: 0x0, symName: __ZNSt3__19allocatorINS_11__tree_nodeINS_12__value_typeIiNS_4pairINS_6vectorIhNS0_IhEEEES6_EEEEPvEEEC2B8ue170006Ev, symObjAddr: 0x27A4, symBinAddr: 0x100005E04, symSize: 0x2C }
  - { offsetInCU: 0x1BFE3, offset: 0x1BFE3, size: 0x8, addend: 0x0, symName: __ZNSt3__116__non_trivial_ifILb1ENS_9allocatorINS_11__tree_nodeINS_12__value_typeIiNS_4pairINS_6vectorIhNS1_IhEEEES7_EEEEPvEEEEEC2B8ue170006Ev, symObjAddr: 0x27D0, symBinAddr: 0x100005E30, symSize: 0x14 }
  - { offsetInCU: 0x1C00D, offset: 0x1C00D, size: 0x8, addend: 0x0, symName: __ZNSt3__117__compressed_pairImNS_19__map_value_compareIiNS_12__value_typeIiNS_4pairINS_6vectorIhNS_9allocatorIhEEEES7_EEEENS_4lessIiEELb1EEEEC2B8ue170006IiRKSC_EEOT_OT0_, symObjAddr: 0x27E4, symBinAddr: 0x100005E44, symSize: 0x44 }
  - { offsetInCU: 0x1C065, offset: 0x1C065, size: 0x8, addend: 0x0, symName: __ZNSt3__122__compressed_pair_elemImLi0ELb0EEC2B8ue170006IivEEOT_, symObjAddr: 0x2828, symBinAddr: 0x100005E88, symSize: 0x24 }
  - { offsetInCU: 0x1C0A7, offset: 0x1C0A7, size: 0x8, addend: 0x0, symName: __ZNSt3__122__compressed_pair_elemINS_19__map_value_compareIiNS_12__value_typeIiNS_4pairINS_6vectorIhNS_9allocatorIhEEEES7_EEEENS_4lessIiEELb1EEELi1ELb1EEC2B8ue170006IRKSC_vEEOT_, symObjAddr: 0x284C, symBinAddr: 0x100005EAC, symSize: 0x18 }
  - { offsetInCU: 0x1C0E9, offset: 0x1C0E9, size: 0x8, addend: 0x0, symName: __ZNSt3__114pointer_traitsIPNS_15__tree_end_nodeIPNS_16__tree_node_baseIPvEEEEE10pointer_toB8ue170006ERS6_, symObjAddr: 0x2864, symBinAddr: 0x100005EC4, symSize: 0x14 }
  - { offsetInCU: 0x1C10C, offset: 0x1C10C, size: 0x8, addend: 0x0, symName: __ZNSt3__117__compressed_pairINS_15__tree_end_nodeIPNS_16__tree_node_baseIPvEEEENS_9allocatorINS_11__tree_nodeINS_12__value_typeIiNS_4pairINS_6vectorIhNS7_IhEEEESD_EEEES3_EEEEE5firstB8ue170006Ev, symObjAddr: 0x2878, symBinAddr: 0x100005ED8, symSize: 0x24 }
  - { offsetInCU: 0x1C132, offset: 0x1C132, size: 0x8, addend: 0x0, symName: __ZNSt3__122__compressed_pair_elemINS_15__tree_end_nodeIPNS_16__tree_node_baseIPvEEEELi0ELb0EE5__getB8ue170006Ev, symObjAddr: 0x289C, symBinAddr: 0x100005EFC, symSize: 0x14 }
  - { offsetInCU: 0x1C158, offset: 0x1C158, size: 0x8, addend: 0x0, symName: __ZNSt3__13mapIiNS_4pairINS_6vectorIhNS_9allocatorIhEEEES5_EENS_4lessIiEENS3_INS1_IKiS6_EEEEED2B8ue170006Ev, symObjAddr: 0x28B0, symBinAddr: 0x100005F10, symSize: 0x2C }
  - { offsetInCU: 0x1C182, offset: 0x1C182, size: 0x8, addend: 0x0, symName: __ZNSt3__16__treeINS_12__value_typeIiNS_4pairINS_6vectorIhNS_9allocatorIhEEEES6_EEEENS_19__map_value_compareIiS8_NS_4lessIiEELb1EEENS4_IS8_EEED1Ev, symObjAddr: 0x28DC, symBinAddr: 0x100005F3C, symSize: 0x2C }
  - { offsetInCU: 0x1C1AE, offset: 0x1C1AE, size: 0x8, addend: 0x0, symName: __ZNSt3__16__treeINS_12__value_typeIiNS_4pairINS_6vectorIhNS_9allocatorIhEEEES6_EEEENS_19__map_value_compareIiS8_NS_4lessIiEELb1EEENS4_IS8_EEED2Ev, symObjAddr: 0x2908, symBinAddr: 0x100005F68, symSize: 0x38 }
  - { offsetInCU: 0x1C1DA, offset: 0x1C1DA, size: 0x8, addend: 0x0, symName: __ZNSt3__16__treeINS_12__value_typeIiNS_4pairINS_6vectorIhNS_9allocatorIhEEEES6_EEEENS_19__map_value_compareIiS8_NS_4lessIiEELb1EEENS4_IS8_EEE7destroyEPNS_11__tree_nodeIS8_PvEE, symObjAddr: 0x2940, symBinAddr: 0x100005FA0, symSize: 0xAC }
  - { offsetInCU: 0x1C226, offset: 0x1C226, size: 0x8, addend: 0x0, symName: __ZNKSt3__16__treeINS_12__value_typeIiNS_4pairINS_6vectorIhNS_9allocatorIhEEEES6_EEEENS_19__map_value_compareIiS8_NS_4lessIiEELb1EEENS4_IS8_EEE6__rootB8ue170006Ev, symObjAddr: 0x29EC, symBinAddr: 0x10000604C, symSize: 0x28 }
  - { offsetInCU: 0x1C24C, offset: 0x1C24C, size: 0x8, addend: 0x0, symName: __ZNSt3__16__treeINS_12__value_typeIiNS_4pairINS_6vectorIhNS_9allocatorIhEEEES6_EEEENS_19__map_value_compareIiS8_NS_4lessIiEELb1EEENS4_IS8_EEE12__node_allocB8ue170006Ev, symObjAddr: 0x2A14, symBinAddr: 0x100006074, symSize: 0x28 }
  - { offsetInCU: 0x1C272, offset: 0x1C272, size: 0x8, addend: 0x0, symName: __ZNSt3__116allocator_traitsINS_9allocatorINS_11__tree_nodeINS_12__value_typeIiNS_4pairINS_6vectorIhNS1_IhEEEES7_EEEEPvEEEEE7destroyB8ue170006INS4_IKiS8_EEvvEEvRSC_PT_, symObjAddr: 0x2A3C, symBinAddr: 0x10000609C, symSize: 0x28 }
  - { offsetInCU: 0x1C2AC, offset: 0x1C2AC, size: 0x8, addend: 0x0, symName: __ZNSt3__122__tree_key_value_typesINS_12__value_typeIiNS_4pairINS_6vectorIhNS_9allocatorIhEEEES6_EEEEE9__get_ptrB8ue170006ERS8_, symObjAddr: 0x2A64, symBinAddr: 0x1000060C4, symSize: 0x24 }
  - { offsetInCU: 0x1C2D0, offset: 0x1C2D0, size: 0x8, addend: 0x0, symName: __ZNSt3__116allocator_traitsINS_9allocatorINS_11__tree_nodeINS_12__value_typeIiNS_4pairINS_6vectorIhNS1_IhEEEES7_EEEEPvEEEEE10deallocateB8ue170006ERSC_PSB_m, symObjAddr: 0x2A88, symBinAddr: 0x1000060E8, symSize: 0x34 }
  - { offsetInCU: 0x1C312, offset: 0x1C312, size: 0x8, addend: 0x0, symName: __ZNSt3__117__compressed_pairINS_15__tree_end_nodeIPNS_16__tree_node_baseIPvEEEENS_9allocatorINS_11__tree_nodeINS_12__value_typeIiNS_4pairINS_6vectorIhNS7_IhEEEESD_EEEES3_EEEEE6secondB8ue170006Ev, symObjAddr: 0x2ABC, symBinAddr: 0x10000611C, symSize: 0x24 }
  - { offsetInCU: 0x1C338, offset: 0x1C338, size: 0x8, addend: 0x0, symName: __ZNSt3__122__compressed_pair_elemINS_9allocatorINS_11__tree_nodeINS_12__value_typeIiNS_4pairINS_6vectorIhNS1_IhEEEES7_EEEEPvEEEELi1ELb1EE5__getB8ue170006Ev, symObjAddr: 0x2AE0, symBinAddr: 0x100006140, symSize: 0x14 }
  - { offsetInCU: 0x1C35E, offset: 0x1C35E, size: 0x8, addend: 0x0, symName: __ZNSt3__14pairIKiNS0_INS_6vectorIhNS_9allocatorIhEEEES5_EEED1Ev, symObjAddr: 0x2AF4, symBinAddr: 0x100006154, symSize: 0x2C }
  - { offsetInCU: 0x1C38A, offset: 0x1C38A, size: 0x8, addend: 0x0, symName: __ZNSt3__14pairIKiNS0_INS_6vectorIhNS_9allocatorIhEEEES5_EEED2Ev, symObjAddr: 0x2B20, symBinAddr: 0x100006180, symSize: 0x30 }
  - { offsetInCU: 0x1C3B6, offset: 0x1C3B6, size: 0x8, addend: 0x0, symName: __ZNSt3__112__value_typeIiNS_4pairINS_6vectorIhNS_9allocatorIhEEEES5_EEE11__get_valueB8ue170006Ev, symObjAddr: 0x2B50, symBinAddr: 0x1000061B0, symSize: 0x14 }
  - { offsetInCU: 0x1C3DC, offset: 0x1C3DC, size: 0x8, addend: 0x0, symName: __ZNSt3__19allocatorINS_11__tree_nodeINS_12__value_typeIiNS_4pairINS_6vectorIhNS0_IhEEEES6_EEEEPvEEE10deallocateB8ue170006EPSA_m, symObjAddr: 0x2B64, symBinAddr: 0x1000061C4, symSize: 0x44 }
  - { offsetInCU: 0x1C41E, offset: 0x1C41E, size: 0x8, addend: 0x0, symName: __ZNKSt3__16__treeINS_12__value_typeIiNS_4pairINS_6vectorIhNS_9allocatorIhEEEES6_EEEENS_19__map_value_compareIiS8_NS_4lessIiEELb1EEENS4_IS8_EEE10__end_nodeB8ue170006Ev, symObjAddr: 0x2C24, symBinAddr: 0x100006284, symSize: 0x2C }
  - { offsetInCU: 0x1C444, offset: 0x1C444, size: 0x8, addend: 0x0, symName: __ZNKSt3__117__compressed_pairINS_15__tree_end_nodeIPNS_16__tree_node_baseIPvEEEENS_9allocatorINS_11__tree_nodeINS_12__value_typeIiNS_4pairINS_6vectorIhNS7_IhEEEESD_EEEES3_EEEEE5firstB8ue170006Ev, symObjAddr: 0x2C50, symBinAddr: 0x1000062B0, symSize: 0x24 }
  - { offsetInCU: 0x1C46A, offset: 0x1C46A, size: 0x8, addend: 0x0, symName: __ZNKSt3__122__compressed_pair_elemINS_15__tree_end_nodeIPNS_16__tree_node_baseIPvEEEELi0ELb0EE5__getB8ue170006Ev, symObjAddr: 0x2C74, symBinAddr: 0x1000062D4, symSize: 0x14 }
  - { offsetInCU: 0x1C490, offset: 0x1C490, size: 0x8, addend: 0x0, symName: __ZNSt3__112basic_stringIcNS_11char_traitsIcEENS_9allocatorIcEEEC2B8ue170006ILi0EEEPKc, symObjAddr: 0x2C88, symBinAddr: 0x1000062E8, symSize: 0x58 }
  - { offsetInCU: 0x1C4D4, offset: 0x1C4D4, size: 0x8, addend: 0x0, symName: __ZNSt3__117__compressed_pairINS_12basic_stringIcNS_11char_traitsIcEENS_9allocatorIcEEE5__repES5_EC1B8ue170006INS_18__default_init_tagESA_EEOT_OT0_, symObjAddr: 0x2CE0, symBinAddr: 0x100006340, symSize: 0x3C }
  - { offsetInCU: 0x1C52C, offset: 0x1C52C, size: 0x8, addend: 0x0, symName: __ZNSt3__111char_traitsIcE6lengthB8ue170006EPKc, symObjAddr: 0x2D1C, symBinAddr: 0x10000637C, symSize: 0x34 }
  - { offsetInCU: 0x1C54F, offset: 0x1C54F, size: 0x8, addend: 0x0, symName: __ZNSt3__117__compressed_pairINS_12basic_stringIcNS_11char_traitsIcEENS_9allocatorIcEEE5__repES5_EC2B8ue170006INS_18__default_init_tagESA_EEOT_OT0_, symObjAddr: 0x2D50, symBinAddr: 0x1000063B0, symSize: 0x3C }
  - { offsetInCU: 0x1C5A7, offset: 0x1C5A7, size: 0x8, addend: 0x0, symName: __ZNSt3__122__compressed_pair_elemINS_12basic_stringIcNS_11char_traitsIcEENS_9allocatorIcEEE5__repELi0ELb0EEC2B8ue170006ENS_18__default_init_tagE, symObjAddr: 0x2D8C, symBinAddr: 0x1000063EC, symSize: 0x14 }
  - { offsetInCU: 0x1C5DB, offset: 0x1C5DB, size: 0x8, addend: 0x0, symName: __ZNSt3__122__compressed_pair_elemINS_9allocatorIcEELi1ELb1EEC2B8ue170006ENS_18__default_init_tagE, symObjAddr: 0x2DA0, symBinAddr: 0x100006400, symSize: 0x2C }
  - { offsetInCU: 0x1C60F, offset: 0x1C60F, size: 0x8, addend: 0x0, symName: __ZNSt3__19allocatorIcEC2B8ue170006Ev, symObjAddr: 0x2DCC, symBinAddr: 0x10000642C, symSize: 0x2C }
  - { offsetInCU: 0x1C639, offset: 0x1C639, size: 0x8, addend: 0x0, symName: __ZNSt3__116__non_trivial_ifILb1ENS_9allocatorIcEEEC2B8ue170006Ev, symObjAddr: 0x2DF8, symBinAddr: 0x100006458, symSize: 0x14 }
  - { offsetInCU: 0x1C663, offset: 0x1C663, size: 0x8, addend: 0x0, symName: __ZNKSt3__112basic_stringIcNS_11char_traitsIcEENS_9allocatorIcEEE4sizeB8ue170006Ev, symObjAddr: 0x2E30, symBinAddr: 0x100006490, symSize: 0x54 }
  - { offsetInCU: 0x1C689, offset: 0x1C689, size: 0x8, addend: 0x0, symName: __ZNKSt3__112basic_stringIcNS_11char_traitsIcEENS_9allocatorIcEEE9__is_longB8ue170006Ev, symObjAddr: 0x2E84, symBinAddr: 0x1000064E4, symSize: 0x38 }
  - { offsetInCU: 0x1C6AF, offset: 0x1C6AF, size: 0x8, addend: 0x0, symName: __ZNKSt3__112basic_stringIcNS_11char_traitsIcEENS_9allocatorIcEEE15__get_long_sizeB8ue170006Ev, symObjAddr: 0x2EBC, symBinAddr: 0x10000651C, symSize: 0x28 }
  - { offsetInCU: 0x1C6D5, offset: 0x1C6D5, size: 0x8, addend: 0x0, symName: __ZNKSt3__112basic_stringIcNS_11char_traitsIcEENS_9allocatorIcEEE16__get_short_sizeB8ue170006Ev, symObjAddr: 0x2EE4, symBinAddr: 0x100006544, symSize: 0x34 }
  - { offsetInCU: 0x1C6FB, offset: 0x1C6FB, size: 0x8, addend: 0x0, symName: __ZNKSt3__117__compressed_pairINS_12basic_stringIcNS_11char_traitsIcEENS_9allocatorIcEEE5__repES5_E5firstB8ue170006Ev, symObjAddr: 0x2F18, symBinAddr: 0x100006578, symSize: 0x24 }
  - { offsetInCU: 0x1C721, offset: 0x1C721, size: 0x8, addend: 0x0, symName: __ZNKSt3__122__compressed_pair_elemINS_12basic_stringIcNS_11char_traitsIcEENS_9allocatorIcEEE5__repELi0ELb0EE5__getB8ue170006Ev, symObjAddr: 0x2F3C, symBinAddr: 0x10000659C, symSize: 0x14 }
  - { offsetInCU: 0x1C747, offset: 0x1C747, size: 0x8, addend: 0x0, symName: __ZNSt3__16vectorINS0_IhNS_9allocatorIhEEEENS1_IS3_EEEC2B8ue170006Ev, symObjAddr: 0x2F50, symBinAddr: 0x1000065B0, symSize: 0x4C }
  - { offsetInCU: 0x1C776, offset: 0x1C776, size: 0x8, addend: 0x0, symName: __ZNSt3__117__compressed_pairIPNS_6vectorIhNS_9allocatorIhEEEENS2_IS4_EEEC1B8ue170006IDnNS_18__default_init_tagEEEOT_OT0_, symObjAddr: 0x2F9C, symBinAddr: 0x1000065FC, symSize: 0x3C }
  - { offsetInCU: 0x1C7CE, offset: 0x1C7CE, size: 0x8, addend: 0x0, symName: __ZNSt3__117__compressed_pairIPNS_6vectorIhNS_9allocatorIhEEEENS2_IS4_EEEC2B8ue170006IDnNS_18__default_init_tagEEEOT_OT0_, symObjAddr: 0x2FD8, symBinAddr: 0x100006638, symSize: 0x40 }
  - { offsetInCU: 0x1C826, offset: 0x1C826, size: 0x8, addend: 0x0, symName: __ZNSt3__122__compressed_pair_elemIPNS_6vectorIhNS_9allocatorIhEEEELi0ELb0EEC2B8ue170006IDnvEEOT_, symObjAddr: 0x3018, symBinAddr: 0x100006678, symSize: 0x1C }
  - { offsetInCU: 0x1C868, offset: 0x1C868, size: 0x8, addend: 0x0, symName: __ZNSt3__122__compressed_pair_elemINS_9allocatorINS_6vectorIhNS1_IhEEEEEELi1ELb1EEC2B8ue170006ENS_18__default_init_tagE, symObjAddr: 0x3034, symBinAddr: 0x100006694, symSize: 0x2C }
  - { offsetInCU: 0x1C89C, offset: 0x1C89C, size: 0x8, addend: 0x0, symName: __ZNSt3__19allocatorINS_6vectorIhNS0_IhEEEEEC2B8ue170006Ev, symObjAddr: 0x3060, symBinAddr: 0x1000066C0, symSize: 0x2C }
  - { offsetInCU: 0x1C8C6, offset: 0x1C8C6, size: 0x8, addend: 0x0, symName: __ZNSt3__116__non_trivial_ifILb1ENS_9allocatorINS_6vectorIhNS1_IhEEEEEEEC2B8ue170006Ev, symObjAddr: 0x308C, symBinAddr: 0x1000066EC, symSize: 0x14 }
  - { offsetInCU: 0x1C8F0, offset: 0x1C8F0, size: 0x8, addend: 0x0, symName: __ZNSt3__16vectorINS0_IhNS_9allocatorIhEEEENS1_IS3_EEED2B8ue170006Ev, symObjAddr: 0x30A0, symBinAddr: 0x100006700, symSize: 0x44 }
  - { offsetInCU: 0x1C91A, offset: 0x1C91A, size: 0x8, addend: 0x0, symName: __ZNSt3__16vectorINS0_IhNS_9allocatorIhEEEENS1_IS3_EEE16__destroy_vectorC1B8ue170006ERS5_, symObjAddr: 0x30E4, symBinAddr: 0x100006744, symSize: 0x34 }
  - { offsetInCU: 0x1C953, offset: 0x1C953, size: 0x8, addend: 0x0, symName: __ZNSt3__16vectorINS0_IhNS_9allocatorIhEEEENS1_IS3_EEE16__destroy_vectorclB8ue170006Ev, symObjAddr: 0x3118, symBinAddr: 0x100006778, symSize: 0x90 }
  - { offsetInCU: 0x1C979, offset: 0x1C979, size: 0x8, addend: 0x0, symName: __ZNSt3__16vectorINS0_IhNS_9allocatorIhEEEENS1_IS3_EEE16__destroy_vectorC2B8ue170006ERS5_, symObjAddr: 0x31A8, symBinAddr: 0x100006808, symSize: 0x20 }
  - { offsetInCU: 0x1C9B2, offset: 0x1C9B2, size: 0x8, addend: 0x0, symName: __ZNSt3__16vectorINS0_IhNS_9allocatorIhEEEENS1_IS3_EEE7__clearB8ue170006Ev, symObjAddr: 0x31C8, symBinAddr: 0x100006828, symSize: 0x28 }
  - { offsetInCU: 0x1C9D8, offset: 0x1C9D8, size: 0x8, addend: 0x0, symName: __ZNKSt3__16vectorINS0_IhNS_9allocatorIhEEEENS1_IS3_EEE17__annotate_deleteB8ue170006Ev, symObjAddr: 0x31F0, symBinAddr: 0x100006850, symSize: 0xD4 }
  - { offsetInCU: 0x1C9FE, offset: 0x1C9FE, size: 0x8, addend: 0x0, symName: __ZNSt3__116allocator_traitsINS_9allocatorINS_6vectorIhNS1_IhEEEEEEE10deallocateB8ue170006ERS5_PS4_m, symObjAddr: 0x32C4, symBinAddr: 0x100006924, symSize: 0x34 }
  - { offsetInCU: 0x1CA40, offset: 0x1CA40, size: 0x8, addend: 0x0, symName: __ZNSt3__16vectorINS0_IhNS_9allocatorIhEEEENS1_IS3_EEE7__allocB8ue170006Ev, symObjAddr: 0x32F8, symBinAddr: 0x100006958, symSize: 0x28 }
  - { offsetInCU: 0x1CA66, offset: 0x1CA66, size: 0x8, addend: 0x0, symName: __ZNKSt3__16vectorINS0_IhNS_9allocatorIhEEEENS1_IS3_EEE8capacityB8ue170006Ev, symObjAddr: 0x3320, symBinAddr: 0x100006980, symSize: 0x40 }
  - { offsetInCU: 0x1CA8C, offset: 0x1CA8C, size: 0x8, addend: 0x0, symName: __ZNSt3__16vectorINS0_IhNS_9allocatorIhEEEENS1_IS3_EEE22__base_destruct_at_endB8ue170006EPS3_, symObjAddr: 0x3360, symBinAddr: 0x1000069C0, symSize: 0x8C }
  - { offsetInCU: 0x1CAD0, offset: 0x1CAD0, size: 0x8, addend: 0x0, symName: __ZNSt3__116allocator_traitsINS_9allocatorINS_6vectorIhNS1_IhEEEEEEE7destroyB8ue170006IS4_vEEvRS5_PT_, symObjAddr: 0x33EC, symBinAddr: 0x100006A4C, symSize: 0x2C }
  - { offsetInCU: 0x1CB0D, offset: 0x1CB0D, size: 0x8, addend: 0x0, symName: __ZNSt3__19allocatorINS_6vectorIhNS0_IhEEEEE7destroyB8ue170006EPS3_, symObjAddr: 0x342C, symBinAddr: 0x100006A8C, symSize: 0x28 }
  - { offsetInCU: 0x1CB41, offset: 0x1CB41, size: 0x8, addend: 0x0, symName: __ZNKSt3__16vectorINS0_IhNS_9allocatorIhEEEENS1_IS3_EEE31__annotate_contiguous_containerB8ue170006EPKvS7_S7_S7_, symObjAddr: 0x3454, symBinAddr: 0x100006AB4, symSize: 0x20 }
  - { offsetInCU: 0x1CB93, offset: 0x1CB93, size: 0x8, addend: 0x0, symName: __ZNKSt3__16vectorINS0_IhNS_9allocatorIhEEEENS1_IS3_EEE4dataB8ue170006Ev, symObjAddr: 0x3474, symBinAddr: 0x100006AD4, symSize: 0x28 }
  - { offsetInCU: 0x1CBB9, offset: 0x1CBB9, size: 0x8, addend: 0x0, symName: __ZNSt3__19allocatorINS_6vectorIhNS0_IhEEEEE10deallocateB8ue170006EPS3_m, symObjAddr: 0x349C, symBinAddr: 0x100006AFC, symSize: 0x44 }
  - { offsetInCU: 0x1CBFB, offset: 0x1CBFB, size: 0x8, addend: 0x0, symName: __ZNSt3__117__compressed_pairIPNS_6vectorIhNS_9allocatorIhEEEENS2_IS4_EEE6secondB8ue170006Ev, symObjAddr: 0x34E0, symBinAddr: 0x100006B40, symSize: 0x24 }
  - { offsetInCU: 0x1CC21, offset: 0x1CC21, size: 0x8, addend: 0x0, symName: __ZNSt3__122__compressed_pair_elemINS_9allocatorINS_6vectorIhNS1_IhEEEEEELi1ELb1EE5__getB8ue170006Ev, symObjAddr: 0x3504, symBinAddr: 0x100006B64, symSize: 0x14 }
  - { offsetInCU: 0x1CC47, offset: 0x1CC47, size: 0x8, addend: 0x0, symName: __ZNKSt3__16vectorINS0_IhNS_9allocatorIhEEEENS1_IS3_EEE9__end_capB8ue170006Ev, symObjAddr: 0x3518, symBinAddr: 0x100006B78, symSize: 0x28 }
  - { offsetInCU: 0x1CC6D, offset: 0x1CC6D, size: 0x8, addend: 0x0, symName: __ZNKSt3__117__compressed_pairIPNS_6vectorIhNS_9allocatorIhEEEENS2_IS4_EEE5firstB8ue170006Ev, symObjAddr: 0x3540, symBinAddr: 0x100006BA0, symSize: 0x24 }
  - { offsetInCU: 0x1CC93, offset: 0x1CC93, size: 0x8, addend: 0x0, symName: __ZNKSt3__122__compressed_pair_elemIPNS_6vectorIhNS_9allocatorIhEEEELi0ELb0EE5__getB8ue170006Ev, symObjAddr: 0x3564, symBinAddr: 0x100006BC4, symSize: 0x14 }
  - { offsetInCU: 0x1CCB9, offset: 0x1CCB9, size: 0x8, addend: 0x0, symName: __ZNSt3__112basic_stringIcNS_11char_traitsIcEENS_9allocatorIcEEE13__get_pointerB8ue170006Ev, symObjAddr: 0x3578, symBinAddr: 0x100006BD8, symSize: 0x54 }
  - { offsetInCU: 0x1CCDF, offset: 0x1CCDF, size: 0x8, addend: 0x0, symName: __ZNSt3__112basic_stringIcNS_11char_traitsIcEENS_9allocatorIcEEE18__get_long_pointerB8ue170006Ev, symObjAddr: 0x35CC, symBinAddr: 0x100006C2C, symSize: 0x28 }
  - { offsetInCU: 0x1CD05, offset: 0x1CD05, size: 0x8, addend: 0x0, symName: __ZNSt3__112basic_stringIcNS_11char_traitsIcEENS_9allocatorIcEEE19__get_short_pointerB8ue170006Ev, symObjAddr: 0x35F4, symBinAddr: 0x100006C54, symSize: 0x28 }
  - { offsetInCU: 0x1CD2B, offset: 0x1CD2B, size: 0x8, addend: 0x0, symName: __ZNSt3__117__compressed_pairINS_12basic_stringIcNS_11char_traitsIcEENS_9allocatorIcEEE5__repES5_E5firstB8ue170006Ev, symObjAddr: 0x361C, symBinAddr: 0x100006C7C, symSize: 0x24 }
  - { offsetInCU: 0x1CD51, offset: 0x1CD51, size: 0x8, addend: 0x0, symName: __ZNSt3__122__compressed_pair_elemINS_12basic_stringIcNS_11char_traitsIcEENS_9allocatorIcEEE5__repELi0ELb0EE5__getB8ue170006Ev, symObjAddr: 0x3640, symBinAddr: 0x100006CA0, symSize: 0x14 }
  - { offsetInCU: 0x1CD77, offset: 0x1CD77, size: 0x8, addend: 0x0, symName: __ZNSt3__114pointer_traitsIPcE10pointer_toB8ue170006ERc, symObjAddr: 0x3654, symBinAddr: 0x100006CB4, symSize: 0x14 }
  - { offsetInCU: 0x1CD9A, offset: 0x1CD9A, size: 0x8, addend: 0x0, symName: __ZNSt3__16vectorIhNS_9allocatorIhEEED2B8ue170006Ev, symObjAddr: 0x3668, symBinAddr: 0x100006CC8, symSize: 0x44 }
  - { offsetInCU: 0x1CDC4, offset: 0x1CDC4, size: 0x8, addend: 0x0, symName: __ZNSt3__16vectorIhNS_9allocatorIhEEE16__destroy_vectorC1B8ue170006ERS3_, symObjAddr: 0x36AC, symBinAddr: 0x100006D0C, symSize: 0x34 }
  - { offsetInCU: 0x1CDFD, offset: 0x1CDFD, size: 0x8, addend: 0x0, symName: __ZNSt3__16vectorIhNS_9allocatorIhEEE16__destroy_vectorclB8ue170006Ev, symObjAddr: 0x36E0, symBinAddr: 0x100006D40, symSize: 0x90 }
  - { offsetInCU: 0x1CE23, offset: 0x1CE23, size: 0x8, addend: 0x0, symName: __ZNSt3__16vectorIhNS_9allocatorIhEEE16__destroy_vectorC2B8ue170006ERS3_, symObjAddr: 0x3770, symBinAddr: 0x100006DD0, symSize: 0x20 }
  - { offsetInCU: 0x1CE5C, offset: 0x1CE5C, size: 0x8, addend: 0x0, symName: __ZNSt3__16vectorIhNS_9allocatorIhEEE7__clearB8ue170006Ev, symObjAddr: 0x3790, symBinAddr: 0x100006DF0, symSize: 0x28 }
  - { offsetInCU: 0x1CE82, offset: 0x1CE82, size: 0x8, addend: 0x0, symName: __ZNKSt3__16vectorIhNS_9allocatorIhEEE17__annotate_deleteB8ue170006Ev, symObjAddr: 0x37B8, symBinAddr: 0x100006E18, symSize: 0xB8 }
  - { offsetInCU: 0x1CEA8, offset: 0x1CEA8, size: 0x8, addend: 0x0, symName: __ZNSt3__116allocator_traitsINS_9allocatorIhEEE10deallocateB8ue170006ERS2_Phm, symObjAddr: 0x3870, symBinAddr: 0x100006ED0, symSize: 0x34 }
  - { offsetInCU: 0x1CEEA, offset: 0x1CEEA, size: 0x8, addend: 0x0, symName: __ZNSt3__16vectorIhNS_9allocatorIhEEE7__allocB8ue170006Ev, symObjAddr: 0x38A4, symBinAddr: 0x100006F04, symSize: 0x28 }
  - { offsetInCU: 0x1CF10, offset: 0x1CF10, size: 0x8, addend: 0x0, symName: __ZNKSt3__16vectorIhNS_9allocatorIhEEE8capacityB8ue170006Ev, symObjAddr: 0x38CC, symBinAddr: 0x100006F2C, symSize: 0x38 }
  - { offsetInCU: 0x1CF36, offset: 0x1CF36, size: 0x8, addend: 0x0, symName: __ZNSt3__16vectorIhNS_9allocatorIhEEE22__base_destruct_at_endB8ue170006EPh, symObjAddr: 0x3904, symBinAddr: 0x100006F64, symSize: 0x8C }
  - { offsetInCU: 0x1CF7A, offset: 0x1CF7A, size: 0x8, addend: 0x0, symName: __ZNSt3__116allocator_traitsINS_9allocatorIhEEE7destroyB8ue170006IhvEEvRS2_PT_, symObjAddr: 0x3990, symBinAddr: 0x100006FF0, symSize: 0x2C }
  - { offsetInCU: 0x1CFB7, offset: 0x1CFB7, size: 0x8, addend: 0x0, symName: __ZNSt3__19allocatorIhE7destroyB8ue170006EPh, symObjAddr: 0x39D0, symBinAddr: 0x100007030, symSize: 0x14 }
  - { offsetInCU: 0x1CFEB, offset: 0x1CFEB, size: 0x8, addend: 0x0, symName: __ZNKSt3__16vectorIhNS_9allocatorIhEEE31__annotate_contiguous_containerB8ue170006EPKvS5_S5_S5_, symObjAddr: 0x39E4, symBinAddr: 0x100007044, symSize: 0x20 }
  - { offsetInCU: 0x1D03D, offset: 0x1D03D, size: 0x8, addend: 0x0, symName: __ZNKSt3__16vectorIhNS_9allocatorIhEEE4dataB8ue170006Ev, symObjAddr: 0x3A04, symBinAddr: 0x100007064, symSize: 0x28 }
  - { offsetInCU: 0x1D063, offset: 0x1D063, size: 0x8, addend: 0x0, symName: __ZNSt3__19allocatorIhE10deallocateB8ue170006EPhm, symObjAddr: 0x3A2C, symBinAddr: 0x10000708C, symSize: 0x40 }
  - { offsetInCU: 0x1D0A5, offset: 0x1D0A5, size: 0x8, addend: 0x0, symName: __ZNSt3__117__compressed_pairIPhNS_9allocatorIhEEE6secondB8ue170006Ev, symObjAddr: 0x3A6C, symBinAddr: 0x1000070CC, symSize: 0x24 }
  - { offsetInCU: 0x1D0CB, offset: 0x1D0CB, size: 0x8, addend: 0x0, symName: __ZNSt3__122__compressed_pair_elemINS_9allocatorIhEELi1ELb1EE5__getB8ue170006Ev, symObjAddr: 0x3A90, symBinAddr: 0x1000070F0, symSize: 0x14 }
  - { offsetInCU: 0x1D0F1, offset: 0x1D0F1, size: 0x8, addend: 0x0, symName: __ZNKSt3__16vectorIhNS_9allocatorIhEEE9__end_capB8ue170006Ev, symObjAddr: 0x3AA4, symBinAddr: 0x100007104, symSize: 0x28 }
  - { offsetInCU: 0x1D117, offset: 0x1D117, size: 0x8, addend: 0x0, symName: __ZNKSt3__117__compressed_pairIPhNS_9allocatorIhEEE5firstB8ue170006Ev, symObjAddr: 0x3ACC, symBinAddr: 0x10000712C, symSize: 0x24 }
  - { offsetInCU: 0x1D13D, offset: 0x1D13D, size: 0x8, addend: 0x0, symName: __ZNKSt3__122__compressed_pair_elemIPhLi0ELb0EE5__getB8ue170006Ev, symObjAddr: 0x3AF0, symBinAddr: 0x100007150, symSize: 0x14 }
  - { offsetInCU: 0x1D163, offset: 0x1D163, size: 0x8, addend: 0x0, symName: __ZNSt3__16vectorINS0_IhNS_9allocatorIhEEEENS1_IS3_EEE9__end_capB8ue170006Ev, symObjAddr: 0x3B04, symBinAddr: 0x100007164, symSize: 0x28 }
  - { offsetInCU: 0x1D189, offset: 0x1D189, size: 0x8, addend: 0x0, symName: __ZNSt3__16vectorINS0_IhNS_9allocatorIhEEEENS1_IS3_EEE22__construct_one_at_endB8ue170006IJS3_EEEvDpOT_, symObjAddr: 0x3B2C, symBinAddr: 0x10000718C, symSize: 0x90 }
  - { offsetInCU: 0x1D1D8, offset: 0x1D1D8, size: 0x8, addend: 0x0, symName: __ZNSt3__16vectorINS0_IhNS_9allocatorIhEEEENS1_IS3_EEE21__push_back_slow_pathIS3_EEvOT_, symObjAddr: 0x3BBC, symBinAddr: 0x10000721C, symSize: 0xD8 }
  - { offsetInCU: 0x1D236, offset: 0x1D236, size: 0x8, addend: 0x0, symName: __ZNSt3__117__compressed_pairIPNS_6vectorIhNS_9allocatorIhEEEENS2_IS4_EEE5firstB8ue170006Ev, symObjAddr: 0x3C94, symBinAddr: 0x1000072F4, symSize: 0x24 }
  - { offsetInCU: 0x1D25C, offset: 0x1D25C, size: 0x8, addend: 0x0, symName: __ZNSt3__122__compressed_pair_elemIPNS_6vectorIhNS_9allocatorIhEEEELi0ELb0EE5__getB8ue170006Ev, symObjAddr: 0x3CB8, symBinAddr: 0x100007318, symSize: 0x14 }
  - { offsetInCU: 0x1D29B, offset: 0x1D29B, size: 0x8, addend: 0x0, symName: __ZNSt3__16vectorINS0_IhNS_9allocatorIhEEEENS1_IS3_EEE21_ConstructTransactionC1B8ue170006ERS5_m, symObjAddr: 0x3CCC, symBinAddr: 0x10000732C, symSize: 0x3C }
  - { offsetInCU: 0x1D2E3, offset: 0x1D2E3, size: 0x8, addend: 0x0, symName: __ZNSt3__116allocator_traitsINS_9allocatorINS_6vectorIhNS1_IhEEEEEEE9constructB8ue170006IS4_JS4_EvEEvRS5_PT_DpOT0_, symObjAddr: 0x3D08, symBinAddr: 0x100007368, symSize: 0x34 }
  - { offsetInCU: 0x1D33A, offset: 0x1D33A, size: 0x8, addend: 0x0, symName: __ZNSt3__16vectorINS0_IhNS_9allocatorIhEEEENS1_IS3_EEE21_ConstructTransactionD1B8ue170006Ev, symObjAddr: 0x3D3C, symBinAddr: 0x10000739C, symSize: 0x2C }
  - { offsetInCU: 0x1D364, offset: 0x1D364, size: 0x8, addend: 0x0, symName: __ZNSt3__16vectorINS0_IhNS_9allocatorIhEEEENS1_IS3_EEE21_ConstructTransactionC2B8ue170006ERS5_m, symObjAddr: 0x3D68, symBinAddr: 0x1000073C8, symSize: 0x4C }
  - { offsetInCU: 0x1D3AC, offset: 0x1D3AC, size: 0x8, addend: 0x0, symName: __ZNSt3__19allocatorINS_6vectorIhNS0_IhEEEEE9constructB8ue170006IS3_JS3_EEEvPT_DpOT0_, symObjAddr: 0x3DB4, symBinAddr: 0x100007414, symSize: 0x30 }
  - { offsetInCU: 0x1D402, offset: 0x1D402, size: 0x8, addend: 0x0, symName: __ZNSt3__16vectorIhNS_9allocatorIhEEEC1B8ue170006EOS3_, symObjAddr: 0x3DE4, symBinAddr: 0x100007444, symSize: 0x34 }
  - { offsetInCU: 0x1D43D, offset: 0x1D43D, size: 0x8, addend: 0x0, symName: __ZNSt3__16vectorIhNS_9allocatorIhEEEC2B8ue170006EOS3_, symObjAddr: 0x3E18, symBinAddr: 0x100007478, symSize: 0xC4 }
  - { offsetInCU: 0x1D47D, offset: 0x1D47D, size: 0x8, addend: 0x0, symName: __ZNSt3__117__compressed_pairIPhNS_9allocatorIhEEEC1B8ue170006IDnS3_EEOT_OT0_, symObjAddr: 0x3EDC, symBinAddr: 0x10000753C, symSize: 0x3C }
  - { offsetInCU: 0x1D4D5, offset: 0x1D4D5, size: 0x8, addend: 0x0, symName: __ZNSt3__16vectorIhNS_9allocatorIhEEE9__end_capB8ue170006Ev, symObjAddr: 0x3F18, symBinAddr: 0x100007578, symSize: 0x28 }
  - { offsetInCU: 0x1D4FB, offset: 0x1D4FB, size: 0x8, addend: 0x0, symName: __ZNSt3__117__compressed_pairIPhNS_9allocatorIhEEEC2B8ue170006IDnS3_EEOT_OT0_, symObjAddr: 0x3F40, symBinAddr: 0x1000075A0, symSize: 0x44 }
  - { offsetInCU: 0x1D553, offset: 0x1D553, size: 0x8, addend: 0x0, symName: __ZNSt3__122__compressed_pair_elemIPhLi0ELb0EEC2B8ue170006IDnvEEOT_, symObjAddr: 0x3F84, symBinAddr: 0x1000075E4, symSize: 0x1C }
  - { offsetInCU: 0x1D595, offset: 0x1D595, size: 0x8, addend: 0x0, symName: __ZNSt3__122__compressed_pair_elemINS_9allocatorIhEELi1ELb1EEC2B8ue170006IS2_vEEOT_, symObjAddr: 0x3FA0, symBinAddr: 0x100007600, symSize: 0x18 }
  - { offsetInCU: 0x1D5D7, offset: 0x1D5D7, size: 0x8, addend: 0x0, symName: __ZNSt3__117__compressed_pairIPhNS_9allocatorIhEEE5firstB8ue170006Ev, symObjAddr: 0x3FB8, symBinAddr: 0x100007618, symSize: 0x24 }
  - { offsetInCU: 0x1D5FD, offset: 0x1D5FD, size: 0x8, addend: 0x0, symName: __ZNSt3__122__compressed_pair_elemIPhLi0ELb0EE5__getB8ue170006Ev, symObjAddr: 0x3FDC, symBinAddr: 0x10000763C, symSize: 0x14 }
  - { offsetInCU: 0x1D623, offset: 0x1D623, size: 0x8, addend: 0x0, symName: __ZNSt3__16vectorINS0_IhNS_9allocatorIhEEEENS1_IS3_EEE21_ConstructTransactionD2B8ue170006Ev, symObjAddr: 0x3FF0, symBinAddr: 0x100007650, symSize: 0x20 }
  - { offsetInCU: 0x1D64D, offset: 0x1D64D, size: 0x8, addend: 0x0, symName: __ZNKSt3__16vectorINS0_IhNS_9allocatorIhEEEENS1_IS3_EEE11__recommendB8ue170006Em, symObjAddr: 0x4010, symBinAddr: 0x100007670, symSize: 0xB4 }
  - { offsetInCU: 0x1D6A2, offset: 0x1D6A2, size: 0x8, addend: 0x0, symName: __ZNSt3__114__split_bufferINS_6vectorIhNS_9allocatorIhEEEERNS2_IS4_EEEC1EmmS6_, symObjAddr: 0x40C4, symBinAddr: 0x100007724, symSize: 0x44 }
  - { offsetInCU: 0x1D6F8, offset: 0x1D6F8, size: 0x8, addend: 0x0, symName: __ZNSt3__114__split_bufferINS_6vectorIhNS_9allocatorIhEEEERNS2_IS4_EEED1Ev, symObjAddr: 0x4218, symBinAddr: 0x100007878, symSize: 0x2C }
  - { offsetInCU: 0x1D724, offset: 0x1D724, size: 0x8, addend: 0x0, symName: __ZNKSt3__16vectorINS0_IhNS_9allocatorIhEEEENS1_IS3_EEE8max_sizeEv, symObjAddr: 0x4244, symBinAddr: 0x1000078A4, symSize: 0x60 }
  - { offsetInCU: 0x1D74C, offset: 0x1D74C, size: 0x8, addend: 0x0, symName: __ZNKSt3__16vectorINS0_IhNS_9allocatorIhEEEENS1_IS3_EEE20__throw_length_errorB8ue170006Ev, symObjAddr: 0x42A4, symBinAddr: 0x100007904, symSize: 0x1C }
  - { offsetInCU: 0x1D77C, offset: 0x1D77C, size: 0x8, addend: 0x0, symName: __ZNSt3__116allocator_traitsINS_9allocatorINS_6vectorIhNS1_IhEEEEEEE8max_sizeB8ue170006IS5_vEEmRKS5_, symObjAddr: 0x4318, symBinAddr: 0x100007978, symSize: 0x24 }
  - { offsetInCU: 0x1D7AA, offset: 0x1D7AA, size: 0x8, addend: 0x0, symName: __ZNKSt3__16vectorINS0_IhNS_9allocatorIhEEEENS1_IS3_EEE7__allocB8ue170006Ev, symObjAddr: 0x433C, symBinAddr: 0x10000799C, symSize: 0x28 }
  - { offsetInCU: 0x1D7DA, offset: 0x1D7DA, size: 0x8, addend: 0x0, symName: __ZNKSt3__16__lessIvvEclB8ue170006ImmEEbRKT_RKT0_, symObjAddr: 0x43B8, symBinAddr: 0x100007A18, symSize: 0x34 }
  - { offsetInCU: 0x1D82E, offset: 0x1D82E, size: 0x8, addend: 0x0, symName: __ZNKSt3__19allocatorINS_6vectorIhNS0_IhEEEEE8max_sizeB8ue170006Ev, symObjAddr: 0x43EC, symBinAddr: 0x100007A4C, symSize: 0x18 }
  - { offsetInCU: 0x1D854, offset: 0x1D854, size: 0x8, addend: 0x0, symName: __ZNKSt3__117__compressed_pairIPNS_6vectorIhNS_9allocatorIhEEEENS2_IS4_EEE6secondB8ue170006Ev, symObjAddr: 0x4404, symBinAddr: 0x100007A64, symSize: 0x24 }
  - { offsetInCU: 0x1D87A, offset: 0x1D87A, size: 0x8, addend: 0x0, symName: __ZNKSt3__122__compressed_pair_elemINS_9allocatorINS_6vectorIhNS1_IhEEEEEELi1ELb1EE5__getB8ue170006Ev, symObjAddr: 0x4428, symBinAddr: 0x100007A88, symSize: 0x14 }
  - { offsetInCU: 0x1D8A0, offset: 0x1D8A0, size: 0x8, addend: 0x0, symName: __ZNSt12length_errorC1B8ue170006EPKc, symObjAddr: 0x44A0, symBinAddr: 0x100007B00, symSize: 0x34 }
  - { offsetInCU: 0x1D8D8, offset: 0x1D8D8, size: 0x8, addend: 0x0, symName: __ZNSt12length_errorC2B8ue170006EPKc, symObjAddr: 0x44D4, symBinAddr: 0x100007B34, symSize: 0x4C }
  - { offsetInCU: 0x1D910, offset: 0x1D910, size: 0x8, addend: 0x0, symName: __ZNSt3__114__split_bufferINS_6vectorIhNS_9allocatorIhEEEERNS2_IS4_EEEC2EmmS6_, symObjAddr: 0x4574, symBinAddr: 0x100007BD4, symSize: 0xE0 }
  - { offsetInCU: 0x1D983, offset: 0x1D983, size: 0x8, addend: 0x0, symName: __ZNSt3__117__compressed_pairIPNS_6vectorIhNS_9allocatorIhEEEERNS2_IS4_EEEC1B8ue170006IDnS7_EEOT_OT0_, symObjAddr: 0x4654, symBinAddr: 0x100007CB4, symSize: 0x3C }
  - { offsetInCU: 0x1D9DB, offset: 0x1D9DB, size: 0x8, addend: 0x0, symName: __ZNSt3__114__split_bufferINS_6vectorIhNS_9allocatorIhEEEERNS2_IS4_EEE7__allocB8ue170006Ev, symObjAddr: 0x46D0, symBinAddr: 0x100007D30, symSize: 0x28 }
  - { offsetInCU: 0x1DA01, offset: 0x1DA01, size: 0x8, addend: 0x0, symName: __ZNSt3__114__split_bufferINS_6vectorIhNS_9allocatorIhEEEERNS2_IS4_EEE9__end_capB8ue170006Ev, symObjAddr: 0x46F8, symBinAddr: 0x100007D58, symSize: 0x28 }
  - { offsetInCU: 0x1DA27, offset: 0x1DA27, size: 0x8, addend: 0x0, symName: __ZNSt3__117__compressed_pairIPNS_6vectorIhNS_9allocatorIhEEEERNS2_IS4_EEEC2B8ue170006IDnS7_EEOT_OT0_, symObjAddr: 0x4720, symBinAddr: 0x100007D80, symSize: 0x48 }
  - { offsetInCU: 0x1DA7F, offset: 0x1DA7F, size: 0x8, addend: 0x0, symName: __ZNSt3__122__compressed_pair_elemIRNS_9allocatorINS_6vectorIhNS1_IhEEEEEELi1ELb0EEC2B8ue170006IS6_vEEOT_, symObjAddr: 0x4768, symBinAddr: 0x100007DC8, symSize: 0x20 }
  - { offsetInCU: 0x1DAC1, offset: 0x1DAC1, size: 0x8, addend: 0x0, symName: __ZNSt3__19allocatorINS_6vectorIhNS0_IhEEEEE8allocateB8ue170006Em, symObjAddr: 0x4788, symBinAddr: 0x100007DE8, symSize: 0x5C }
  - { offsetInCU: 0x1DAF5, offset: 0x1DAF5, size: 0x8, addend: 0x0, symName: __ZNSt3__117__compressed_pairIPNS_6vectorIhNS_9allocatorIhEEEERNS2_IS4_EEE6secondB8ue170006Ev, symObjAddr: 0x4864, symBinAddr: 0x100007EC4, symSize: 0x28 }
  - { offsetInCU: 0x1DB1B, offset: 0x1DB1B, size: 0x8, addend: 0x0, symName: __ZNSt3__122__compressed_pair_elemIRNS_9allocatorINS_6vectorIhNS1_IhEEEEEELi1ELb0EE5__getB8ue170006Ev, symObjAddr: 0x488C, symBinAddr: 0x100007EEC, symSize: 0x18 }
  - { offsetInCU: 0x1DB41, offset: 0x1DB41, size: 0x8, addend: 0x0, symName: __ZNSt3__117__compressed_pairIPNS_6vectorIhNS_9allocatorIhEEEERNS2_IS4_EEE5firstB8ue170006Ev, symObjAddr: 0x48A4, symBinAddr: 0x100007F04, symSize: 0x24 }
  - { offsetInCU: 0x1DB67, offset: 0x1DB67, size: 0x8, addend: 0x0, symName: __ZNSt3__116reverse_iteratorIPNS_6vectorIhNS_9allocatorIhEEEEEC1B8ue170006ES5_, symObjAddr: 0x49F4, symBinAddr: 0x100008054, symSize: 0x34 }
  - { offsetInCU: 0x1DB9F, offset: 0x1DB9F, size: 0x8, addend: 0x0, symName: __ZNKSt3__116reverse_iteratorIPNS_6vectorIhNS_9allocatorIhEEEEE4baseB8ue170006Ev, symObjAddr: 0x4A28, symBinAddr: 0x100008088, symSize: 0x18 }
  - { offsetInCU: 0x1DBC5, offset: 0x1DBC5, size: 0x8, addend: 0x0, symName: __ZNKSt3__16vectorINS0_IhNS_9allocatorIhEEEENS1_IS3_EEE14__annotate_newB8ue170006Em, symObjAddr: 0x4A7C, symBinAddr: 0x1000080DC, symSize: 0xC8 }
  - { offsetInCU: 0x1DBFA, offset: 0x1DBFA, size: 0x8, addend: 0x0, symName: __ZNSt3__129_AllocatorDestroyRangeReverseINS_9allocatorINS_6vectorIhNS1_IhEEEEEENS_16reverse_iteratorIPS4_EEEC1B8ue170006ERS5_RS8_SB_, symObjAddr: 0x4B90, symBinAddr: 0x1000081F0, symSize: 0x44 }
  - { offsetInCU: 0x1DC51, offset: 0x1DC51, size: 0x8, addend: 0x0, symName: __ZNKSt3__116reverse_iteratorIPNS_6vectorIhNS_9allocatorIhEEEEEdeB8ue170006Ev, symObjAddr: 0x4C40, symBinAddr: 0x1000082A0, symSize: 0x28 }
  - { offsetInCU: 0x1DC85, offset: 0x1DC85, size: 0x8, addend: 0x0, symName: __ZNSt3__116reverse_iteratorIPNS_6vectorIhNS_9allocatorIhEEEEEppB8ue170006Ev, symObjAddr: 0x4C68, symBinAddr: 0x1000082C8, symSize: 0x20 }
  - { offsetInCU: 0x1DCAB, offset: 0x1DCAB, size: 0x8, addend: 0x0, symName: __ZNSt3__128__exception_guard_exceptionsINS_29_AllocatorDestroyRangeReverseINS_9allocatorINS_6vectorIhNS2_IhEEEEEENS_16reverse_iteratorIPS5_EEEEE10__completeB8ue170006Ev, symObjAddr: 0x4C88, symBinAddr: 0x1000082E8, symSize: 0x1C }
  - { offsetInCU: 0x1DCD1, offset: 0x1DCD1, size: 0x8, addend: 0x0, symName: __ZNSt3__128__exception_guard_exceptionsINS_29_AllocatorDestroyRangeReverseINS_9allocatorINS_6vectorIhNS2_IhEEEEEENS_16reverse_iteratorIPS5_EEEEED1B8ue170006Ev, symObjAddr: 0x4CA4, symBinAddr: 0x100008304, symSize: 0x2C }
  - { offsetInCU: 0x1DCFB, offset: 0x1DCFB, size: 0x8, addend: 0x0, symName: __ZNSt3__128__exception_guard_exceptionsINS_29_AllocatorDestroyRangeReverseINS_9allocatorINS_6vectorIhNS2_IhEEEEEENS_16reverse_iteratorIPS5_EEEEEC1B8ue170006ESA_, symObjAddr: 0x4CD0, symBinAddr: 0x100008330, symSize: 0x34 }
  - { offsetInCU: 0x1DD34, offset: 0x1DD34, size: 0x8, addend: 0x0, symName: __ZNSt3__128__exception_guard_exceptionsINS_29_AllocatorDestroyRangeReverseINS_9allocatorINS_6vectorIhNS2_IhEEEEEENS_16reverse_iteratorIPS5_EEEEEC2B8ue170006ESA_, symObjAddr: 0x4D04, symBinAddr: 0x100008364, symSize: 0x30 }
  - { offsetInCU: 0x1DD6D, offset: 0x1DD6D, size: 0x8, addend: 0x0, symName: __ZNSt3__129_AllocatorDestroyRangeReverseINS_9allocatorINS_6vectorIhNS1_IhEEEEEENS_16reverse_iteratorIPS4_EEEC2B8ue170006ERS5_RS8_SB_, symObjAddr: 0x4D34, symBinAddr: 0x100008394, symSize: 0x38 }
  - { offsetInCU: 0x1DDC9, offset: 0x1DDC9, size: 0x8, addend: 0x0, symName: __ZNSt3__119__to_address_helperINS_16reverse_iteratorIPNS_6vectorIhNS_9allocatorIhEEEEEEvE6__callB8ue170006ERKS7_, symObjAddr: 0x4D6C, symBinAddr: 0x1000083CC, symSize: 0x38 }
  - { offsetInCU: 0x1DDEC, offset: 0x1DDEC, size: 0x8, addend: 0x0, symName: __ZNKSt3__116reverse_iteratorIPNS_6vectorIhNS_9allocatorIhEEEEEptB8ue170006Ev, symObjAddr: 0x4DA4, symBinAddr: 0x100008404, symSize: 0x24 }
  - { offsetInCU: 0x1DE12, offset: 0x1DE12, size: 0x8, addend: 0x0, symName: __ZNSt3__128__exception_guard_exceptionsINS_29_AllocatorDestroyRangeReverseINS_9allocatorINS_6vectorIhNS2_IhEEEEEENS_16reverse_iteratorIPS5_EEEEED2B8ue170006Ev, symObjAddr: 0x4DC8, symBinAddr: 0x100008428, symSize: 0x50 }
  - { offsetInCU: 0x1DE3C, offset: 0x1DE3C, size: 0x8, addend: 0x0, symName: __ZNKSt3__129_AllocatorDestroyRangeReverseINS_9allocatorINS_6vectorIhNS1_IhEEEEEENS_16reverse_iteratorIPS4_EEEclB8ue170006Ev, symObjAddr: 0x4E18, symBinAddr: 0x100008478, symSize: 0xB4 }
  - { offsetInCU: 0x1DE63, offset: 0x1DE63, size: 0x8, addend: 0x0, symName: __ZNSt3__116reverse_iteratorINS0_IPNS_6vectorIhNS_9allocatorIhEEEEEEEC1B8ue170006ES6_, symObjAddr: 0x4F3C, symBinAddr: 0x10000859C, symSize: 0x3C }
  - { offsetInCU: 0x1DE9B, offset: 0x1DE9B, size: 0x8, addend: 0x0, symName: __ZNSt3__116reverse_iteratorINS0_IPNS_6vectorIhNS_9allocatorIhEEEEEEEppB8ue170006Ev, symObjAddr: 0x4FFC, symBinAddr: 0x10000865C, symSize: 0x30 }
  - { offsetInCU: 0x1DEC1, offset: 0x1DEC1, size: 0x8, addend: 0x0, symName: __ZNKSt3__116reverse_iteratorINS0_IPNS_6vectorIhNS_9allocatorIhEEEEEEE4baseB8ue170006Ev, symObjAddr: 0x502C, symBinAddr: 0x10000868C, symSize: 0x24 }
  - { offsetInCU: 0x1DEEC, offset: 0x1DEEC, size: 0x8, addend: 0x0, symName: __ZNSt3__119__to_address_helperINS_16reverse_iteratorINS1_IPNS_6vectorIhNS_9allocatorIhEEEEEEEEvE6__callB8ue170006ERKS8_, symObjAddr: 0x5050, symBinAddr: 0x1000086B0, symSize: 0x38 }
  - { offsetInCU: 0x1DF0F, offset: 0x1DF0F, size: 0x8, addend: 0x0, symName: __ZNKSt3__116reverse_iteratorINS0_IPNS_6vectorIhNS_9allocatorIhEEEEEEEptB8ue170006Ev, symObjAddr: 0x5088, symBinAddr: 0x1000086E8, symSize: 0x24 }
  - { offsetInCU: 0x1DF35, offset: 0x1DF35, size: 0x8, addend: 0x0, symName: __ZNKSt3__116reverse_iteratorINS0_IPNS_6vectorIhNS_9allocatorIhEEEEEEEdeB8ue170006Ev, symObjAddr: 0x50AC, symBinAddr: 0x10000870C, symSize: 0x34 }
  - { offsetInCU: 0x1DF69, offset: 0x1DF69, size: 0x8, addend: 0x0, symName: __ZNSt3__116reverse_iteratorIPNS_6vectorIhNS_9allocatorIhEEEEEmmB8ue170006Ev, symObjAddr: 0x50E0, symBinAddr: 0x100008740, symSize: 0x20 }
  - { offsetInCU: 0x1DF8F, offset: 0x1DF8F, size: 0x8, addend: 0x0, symName: __ZNSt3__116reverse_iteratorINS0_IPNS_6vectorIhNS_9allocatorIhEEEEEEEC2B8ue170006ES6_, symObjAddr: 0x5100, symBinAddr: 0x100008760, symSize: 0x2C }
  - { offsetInCU: 0x1DFC7, offset: 0x1DFC7, size: 0x8, addend: 0x0, symName: __ZNSt3__116reverse_iteratorIPNS_6vectorIhNS_9allocatorIhEEEEEC2B8ue170006ES5_, symObjAddr: 0x512C, symBinAddr: 0x10000878C, symSize: 0x28 }
  - { offsetInCU: 0x1DFFF, offset: 0x1DFFF, size: 0x8, addend: 0x0, symName: __ZNSt3__114__split_bufferINS_6vectorIhNS_9allocatorIhEEEERNS2_IS4_EEED2Ev, symObjAddr: 0x5154, symBinAddr: 0x1000087B4, symSize: 0x8C }
  - { offsetInCU: 0x1E02B, offset: 0x1E02B, size: 0x8, addend: 0x0, symName: __ZNSt3__114__split_bufferINS_6vectorIhNS_9allocatorIhEEEERNS2_IS4_EEE5clearB8ue170006Ev, symObjAddr: 0x51E0, symBinAddr: 0x100008840, symSize: 0x28 }
  - { offsetInCU: 0x1E051, offset: 0x1E051, size: 0x8, addend: 0x0, symName: __ZNKSt3__114__split_bufferINS_6vectorIhNS_9allocatorIhEEEERNS2_IS4_EEE8capacityB8ue170006Ev, symObjAddr: 0x5208, symBinAddr: 0x100008868, symSize: 0x40 }
  - { offsetInCU: 0x1E077, offset: 0x1E077, size: 0x8, addend: 0x0, symName: __ZNSt3__114__split_bufferINS_6vectorIhNS_9allocatorIhEEEERNS2_IS4_EEE17__destruct_at_endB8ue170006EPS4_, symObjAddr: 0x5248, symBinAddr: 0x1000088A8, symSize: 0x2C }
  - { offsetInCU: 0x1E0AB, offset: 0x1E0AB, size: 0x8, addend: 0x0, symName: __ZNSt3__114__split_bufferINS_6vectorIhNS_9allocatorIhEEEERNS2_IS4_EEE17__destruct_at_endB8ue170006EPS4_NS_17integral_constantIbLb0EEE, symObjAddr: 0x5274, symBinAddr: 0x1000088D4, symSize: 0x80 }
  - { offsetInCU: 0x1E0EB, offset: 0x1E0EB, size: 0x8, addend: 0x0, symName: __ZNKSt3__114__split_bufferINS_6vectorIhNS_9allocatorIhEEEERNS2_IS4_EEE9__end_capB8ue170006Ev, symObjAddr: 0x52F4, symBinAddr: 0x100008954, symSize: 0x28 }
  - { offsetInCU: 0x1E111, offset: 0x1E111, size: 0x8, addend: 0x0, symName: __ZNKSt3__117__compressed_pairIPNS_6vectorIhNS_9allocatorIhEEEERNS2_IS4_EEE5firstB8ue170006Ev, symObjAddr: 0x531C, symBinAddr: 0x10000897C, symSize: 0x24 }
  - { offsetInCU: 0x1E137, offset: 0x1E137, size: 0x8, addend: 0x0, symName: __ZNSt3__16vectorINS0_IhNS_9allocatorIhEEEENS1_IS3_EEE11__make_iterB8ue170006EPS3_, symObjAddr: 0x5340, symBinAddr: 0x1000089A0, symSize: 0x30 }
  - { offsetInCU: 0x1E16C, offset: 0x1E16C, size: 0x8, addend: 0x0, symName: __ZNSt3__111__wrap_iterIPNS_6vectorIhNS_9allocatorIhEEEEEC1B8ue170006ES5_, symObjAddr: 0x5370, symBinAddr: 0x1000089D0, symSize: 0x34 }
  - { offsetInCU: 0x1E1A4, offset: 0x1E1A4, size: 0x8, addend: 0x0, symName: __ZNSt3__111__wrap_iterIPNS_6vectorIhNS_9allocatorIhEEEEEC2B8ue170006ES5_, symObjAddr: 0x53A4, symBinAddr: 0x100008A04, symSize: 0x20 }
  - { offsetInCU: 0x1E1DC, offset: 0x1E1DC, size: 0x8, addend: 0x0, symName: __ZNSt3__16vectorIhNS_9allocatorIhEEEC2ERKS3_, symObjAddr: 0x53C4, symBinAddr: 0x100008A24, symSize: 0x94 }
  - { offsetInCU: 0x1E221, offset: 0x1E221, size: 0x8, addend: 0x0, symName: __ZNSt3__116allocator_traitsINS_9allocatorIhEEE37select_on_container_copy_constructionB8ue170006IS2_vvEES2_RKS2_, symObjAddr: 0x5458, symBinAddr: 0x100008AB8, symSize: 0x10 }
  - { offsetInCU: 0x1E250, offset: 0x1E250, size: 0x8, addend: 0x0, symName: __ZNKSt3__16vectorIhNS_9allocatorIhEEE7__allocB8ue170006Ev, symObjAddr: 0x5468, symBinAddr: 0x100008AC8, symSize: 0x28 }
  - { offsetInCU: 0x1E276, offset: 0x1E276, size: 0x8, addend: 0x0, symName: __ZNSt3__16vectorIhNS_9allocatorIhEEE16__init_with_sizeB8ue170006IPhS5_EEvT_T0_m, symObjAddr: 0x5490, symBinAddr: 0x100008AF0, symSize: 0xB8 }
  - { offsetInCU: 0x1E2EA, offset: 0x1E2EA, size: 0x8, addend: 0x0, symName: __ZNKSt3__117__compressed_pairIPhNS_9allocatorIhEEE6secondB8ue170006Ev, symObjAddr: 0x5548, symBinAddr: 0x100008BA8, symSize: 0x24 }
  - { offsetInCU: 0x1E310, offset: 0x1E310, size: 0x8, addend: 0x0, symName: __ZNKSt3__122__compressed_pair_elemINS_9allocatorIhEELi1ELb1EE5__getB8ue170006Ev, symObjAddr: 0x556C, symBinAddr: 0x100008BCC, symSize: 0x14 }
  - { offsetInCU: 0x1E336, offset: 0x1E336, size: 0x8, addend: 0x0, symName: __ZNSt3__16vectorIhNS_9allocatorIhEEE11__vallocateB8ue170006Em, symObjAddr: 0x55C0, symBinAddr: 0x100008C20, symSize: 0xAC }
  - { offsetInCU: 0x1E37A, offset: 0x1E37A, size: 0x8, addend: 0x0, symName: __ZNSt3__16vectorIhNS_9allocatorIhEEE18__construct_at_endIPhS5_EEvT_T0_m, symObjAddr: 0x566C, symBinAddr: 0x100008CCC, symSize: 0x8C }
  - { offsetInCU: 0x1E3F0, offset: 0x1E3F0, size: 0x8, addend: 0x0, symName: __ZNSt3__128__exception_guard_exceptionsINS_6vectorIhNS_9allocatorIhEEE16__destroy_vectorEE10__completeB8ue170006Ev, symObjAddr: 0x56F8, symBinAddr: 0x100008D58, symSize: 0x1C }
  - { offsetInCU: 0x1E416, offset: 0x1E416, size: 0x8, addend: 0x0, symName: __ZNSt3__128__exception_guard_exceptionsINS_6vectorIhNS_9allocatorIhEEE16__destroy_vectorEED1B8ue170006Ev, symObjAddr: 0x5714, symBinAddr: 0x100008D74, symSize: 0x2C }
  - { offsetInCU: 0x1E440, offset: 0x1E440, size: 0x8, addend: 0x0, symName: __ZNSt3__128__exception_guard_exceptionsINS_6vectorIhNS_9allocatorIhEEE16__destroy_vectorEEC1B8ue170006ES5_, symObjAddr: 0x5740, symBinAddr: 0x100008DA0, symSize: 0x34 }
  - { offsetInCU: 0x1E478, offset: 0x1E478, size: 0x8, addend: 0x0, symName: __ZNSt3__128__exception_guard_exceptionsINS_6vectorIhNS_9allocatorIhEEE16__destroy_vectorEEC2B8ue170006ES5_, symObjAddr: 0x5774, symBinAddr: 0x100008DD4, symSize: 0x24 }
  - { offsetInCU: 0x1E4B0, offset: 0x1E4B0, size: 0x8, addend: 0x0, symName: __ZNKSt3__16vectorIhNS_9allocatorIhEEE8max_sizeEv, symObjAddr: 0x5798, symBinAddr: 0x100008DF8, symSize: 0x60 }
  - { offsetInCU: 0x1E4D8, offset: 0x1E4D8, size: 0x8, addend: 0x0, symName: __ZNKSt3__16vectorIhNS_9allocatorIhEEE20__throw_length_errorB8ue170006Ev, symObjAddr: 0x57F8, symBinAddr: 0x100008E58, symSize: 0x1C }
  - { offsetInCU: 0x1E4FE, offset: 0x1E4FE, size: 0x8, addend: 0x0, symName: __ZNKSt3__16vectorIhNS_9allocatorIhEEE14__annotate_newB8ue170006Em, symObjAddr: 0x5854, symBinAddr: 0x100008EB4, symSize: 0xAC }
  - { offsetInCU: 0x1E533, offset: 0x1E533, size: 0x8, addend: 0x0, symName: __ZNSt3__116allocator_traitsINS_9allocatorIhEEE8max_sizeB8ue170006IS2_vEEmRKS2_, symObjAddr: 0x5900, symBinAddr: 0x100008F60, symSize: 0x24 }
  - { offsetInCU: 0x1E561, offset: 0x1E561, size: 0x8, addend: 0x0, symName: __ZNKSt3__19allocatorIhE8max_sizeB8ue170006Ev, symObjAddr: 0x5924, symBinAddr: 0x100008F84, symSize: 0x14 }
  - { offsetInCU: 0x1E587, offset: 0x1E587, size: 0x8, addend: 0x0, symName: __ZNSt3__19allocatorIhE8allocateB8ue170006Em, symObjAddr: 0x5938, symBinAddr: 0x100008F98, symSize: 0x58 }
  - { offsetInCU: 0x1E5D4, offset: 0x1E5D4, size: 0x8, addend: 0x0, symName: __ZNSt3__16vectorIhNS_9allocatorIhEEE21_ConstructTransactionC1B8ue170006ERS3_m, symObjAddr: 0x5990, symBinAddr: 0x100008FF0, symSize: 0x3C }
  - { offsetInCU: 0x1E61C, offset: 0x1E61C, size: 0x8, addend: 0x0, symName: __ZNSt3__16vectorIhNS_9allocatorIhEEE21_ConstructTransactionD1B8ue170006Ev, symObjAddr: 0x5A4C, symBinAddr: 0x1000090AC, symSize: 0x2C }
  - { offsetInCU: 0x1E646, offset: 0x1E646, size: 0x8, addend: 0x0, symName: __ZNSt3__16vectorIhNS_9allocatorIhEEE21_ConstructTransactionC2B8ue170006ERS3_m, symObjAddr: 0x5A78, symBinAddr: 0x1000090D8, symSize: 0x44 }
  - { offsetInCU: 0x1E6AC, offset: 0x1E6AC, size: 0x8, addend: 0x0, symName: __ZNSt3__14pairIPhS1_EC1B8ue170006IS1_S1_LPv0EEEOT_OT0_, symObjAddr: 0x5BEC, symBinAddr: 0x10000924C, symSize: 0x3C }
  - { offsetInCU: 0x1E70A, offset: 0x1E70A, size: 0x8, addend: 0x0, symName: __ZNSt3__14pairIPhS1_EC2B8ue170006IS1_S1_LPv0EEEOT_OT0_, symObjAddr: 0x5C28, symBinAddr: 0x100009288, symSize: 0x34 }
  - { offsetInCU: 0x1E772, offset: 0x1E772, size: 0x8, addend: 0x0, symName: __ZNKSt3__114__copy_trivialclB8ue170006IhhLi0EEENS_4pairIPT_PT0_EES4_S4_S6_, symObjAddr: 0x5DD8, symBinAddr: 0x100009438, symSize: 0x48 }
  - { offsetInCU: 0x1E7DA, offset: 0x1E7DA, size: 0x8, addend: 0x0, symName: __ZNSt3__14pairIPhS1_EC1B8ue170006IRS1_S1_LPv0EEEOT_OT0_, symObjAddr: 0x5F60, symBinAddr: 0x1000095C0, symSize: 0x3C }
  - { offsetInCU: 0x1E838, offset: 0x1E838, size: 0x8, addend: 0x0, symName: __ZNSt3__14pairIPhS1_EC2B8ue170006IRS1_S1_LPv0EEEOT_OT0_, symObjAddr: 0x5F9C, symBinAddr: 0x1000095FC, symSize: 0x34 }
  - { offsetInCU: 0x1E896, offset: 0x1E896, size: 0x8, addend: 0x0, symName: __ZNSt3__118__unwrap_iter_implIPhLb1EE8__unwrapB8ue170006ES1_, symObjAddr: 0x5FD0, symBinAddr: 0x100009630, symSize: 0x24 }
  - { offsetInCU: 0x1E8B9, offset: 0x1E8B9, size: 0x8, addend: 0x0, symName: __ZNSt3__118__unwrap_iter_implIPhLb1EE8__rewrapB8ue170006ES1_S1_, symObjAddr: 0x5FF4, symBinAddr: 0x100009654, symSize: 0x48 }
  - { offsetInCU: 0x1E8EA, offset: 0x1E8EA, size: 0x8, addend: 0x0, symName: __ZNSt3__16vectorIhNS_9allocatorIhEEE21_ConstructTransactionD2B8ue170006Ev, symObjAddr: 0x603C, symBinAddr: 0x10000969C, symSize: 0x20 }
  - { offsetInCU: 0x1E914, offset: 0x1E914, size: 0x8, addend: 0x0, symName: __ZNSt3__128__exception_guard_exceptionsINS_6vectorIhNS_9allocatorIhEEE16__destroy_vectorEED2B8ue170006Ev, symObjAddr: 0x605C, symBinAddr: 0x1000096BC, symSize: 0x48 }
  - { offsetInCU: 0x1E93E, offset: 0x1E93E, size: 0x8, addend: 0x0, symName: __ZNKSt3__19basic_iosIcNS_11char_traitsIcEEE5widenB8ue170006Ec, symObjAddr: 0x60A4, symBinAddr: 0x100009704, symSize: 0x84 }
  - { offsetInCU: 0x1E9A7, offset: 0x1E9A7, size: 0x8, addend: 0x0, symName: __ZNKSt3__15ctypeIcE5widenB8ue170006Ec, symObjAddr: 0x6154, symBinAddr: 0x1000097B4, symSize: 0x38 }
  - { offsetInCU: 0x1E9FA, offset: 0x1E9FA, size: 0x8, addend: 0x0, symName: __ZNKSt3__113basic_ostreamIcNS_11char_traitsIcEEE6sentrycvbB8ue170006Ev, symObjAddr: 0x6378, symBinAddr: 0x1000099D8, symSize: 0x1C }
  - { offsetInCU: 0x1EA20, offset: 0x1EA20, size: 0x8, addend: 0x0, symName: __ZNSt3__119ostreambuf_iteratorIcNS_11char_traitsIcEEEC1B8ue170006ERNS_13basic_ostreamIcS2_EE, symObjAddr: 0x65D4, symBinAddr: 0x100009C34, symSize: 0x34 }
  - { offsetInCU: 0x1EA58, offset: 0x1EA58, size: 0x8, addend: 0x0, symName: __ZNKSt3__18ios_base5flagsB8ue170006Ev, symObjAddr: 0x6608, symBinAddr: 0x100009C68, symSize: 0x18 }
  - { offsetInCU: 0x1EA80, offset: 0x1EA80, size: 0x8, addend: 0x0, symName: __ZNKSt3__19basic_iosIcNS_11char_traitsIcEEE4fillB8ue170006Ev, symObjAddr: 0x6620, symBinAddr: 0x100009C80, symSize: 0x64 }
  - { offsetInCU: 0x1EAA8, offset: 0x1EAA8, size: 0x8, addend: 0x0, symName: __ZNKSt3__119ostreambuf_iteratorIcNS_11char_traitsIcEEE6failedB8ue170006Ev, symObjAddr: 0x6684, symBinAddr: 0x100009CE4, symSize: 0x24 }
  - { offsetInCU: 0x1EACE, offset: 0x1EACE, size: 0x8, addend: 0x0, symName: __ZNSt3__19basic_iosIcNS_11char_traitsIcEEE8setstateB8ue170006Ej, symObjAddr: 0x66A8, symBinAddr: 0x100009D08, symSize: 0x2C }
  - { offsetInCU: 0x1EB03, offset: 0x1EB03, size: 0x8, addend: 0x0, symName: __ZNKSt3__18ios_base5widthB8ue170006Ev, symObjAddr: 0x66D4, symBinAddr: 0x100009D34, symSize: 0x18 }
  - { offsetInCU: 0x1EB2B, offset: 0x1EB2B, size: 0x8, addend: 0x0, symName: __ZNSt3__115basic_streambufIcNS_11char_traitsIcEEE5sputnB8ue170006EPKcl, symObjAddr: 0x66EC, symBinAddr: 0x100009D4C, symSize: 0x3C }
  - { offsetInCU: 0x1EB6D, offset: 0x1EB6D, size: 0x8, addend: 0x0, symName: __ZNSt3__112basic_stringIcNS_11char_traitsIcEENS_9allocatorIcEEEC1B8ue170006Emc, symObjAddr: 0x6728, symBinAddr: 0x100009D88, symSize: 0x3C }
  - { offsetInCU: 0x1EBB5, offset: 0x1EBB5, size: 0x8, addend: 0x0, symName: __ZNKSt3__112basic_stringIcNS_11char_traitsIcEENS_9allocatorIcEEE4dataB8ue170006Ev, symObjAddr: 0x6764, symBinAddr: 0x100009DC4, symSize: 0x28 }
  - { offsetInCU: 0x1EBDB, offset: 0x1EBDB, size: 0x8, addend: 0x0, symName: __ZNSt3__18ios_base5widthB8ue170006El, symObjAddr: 0x678C, symBinAddr: 0x100009DEC, symSize: 0x2C }
  - { offsetInCU: 0x1EC21, offset: 0x1EC21, size: 0x8, addend: 0x0, symName: __ZNSt3__112basic_stringIcNS_11char_traitsIcEENS_9allocatorIcEEEC2B8ue170006Emc, symObjAddr: 0x67B8, symBinAddr: 0x100009E18, symSize: 0x4C }
  - { offsetInCU: 0x1EC69, offset: 0x1EC69, size: 0x8, addend: 0x0, symName: __ZNKSt3__112basic_stringIcNS_11char_traitsIcEENS_9allocatorIcEEE13__get_pointerB8ue170006Ev, symObjAddr: 0x6818, symBinAddr: 0x100009E78, symSize: 0x54 }
  - { offsetInCU: 0x1EC8F, offset: 0x1EC8F, size: 0x8, addend: 0x0, symName: __ZNKSt3__112basic_stringIcNS_11char_traitsIcEENS_9allocatorIcEEE18__get_long_pointerB8ue170006Ev, symObjAddr: 0x686C, symBinAddr: 0x100009ECC, symSize: 0x28 }
  - { offsetInCU: 0x1ECB5, offset: 0x1ECB5, size: 0x8, addend: 0x0, symName: __ZNKSt3__112basic_stringIcNS_11char_traitsIcEENS_9allocatorIcEEE19__get_short_pointerB8ue170006Ev, symObjAddr: 0x6894, symBinAddr: 0x100009EF4, symSize: 0x28 }
  - { offsetInCU: 0x1ECDB, offset: 0x1ECDB, size: 0x8, addend: 0x0, symName: __ZNSt3__114pointer_traitsIPKcE10pointer_toB8ue170006ERS1_, symObjAddr: 0x68BC, symBinAddr: 0x100009F1C, symSize: 0x14 }
  - { offsetInCU: 0x1ECFE, offset: 0x1ECFE, size: 0x8, addend: 0x0, symName: __ZNSt3__119ostreambuf_iteratorIcNS_11char_traitsIcEEEC2B8ue170006ERNS_13basic_ostreamIcS2_EE, symObjAddr: 0x68D0, symBinAddr: 0x100009F30, symSize: 0x54 }
  - { offsetInCU: 0x1ED36, offset: 0x1ED36, size: 0x8, addend: 0x0, symName: __ZNKSt3__19basic_iosIcNS_11char_traitsIcEEE5rdbufB8ue170006Ev, symObjAddr: 0x6924, symBinAddr: 0x100009F84, symSize: 0x24 }
  - { offsetInCU: 0x1ED5E, offset: 0x1ED5E, size: 0x8, addend: 0x0, symName: __ZNKSt3__18ios_base5rdbufB8ue170006Ev, symObjAddr: 0x6948, symBinAddr: 0x100009FA8, symSize: 0x18 }
  - { offsetInCU: 0x1ED84, offset: 0x1ED84, size: 0x8, addend: 0x0, symName: __ZNSt3__111char_traitsIcE11eq_int_typeB8ue170006Eii, symObjAddr: 0x6960, symBinAddr: 0x100009FC0, symSize: 0x28 }
  - { offsetInCU: 0x1EDB7, offset: 0x1EDB7, size: 0x8, addend: 0x0, symName: __ZNSt3__111char_traitsIcE3eofB8ue170006Ev, symObjAddr: 0x6988, symBinAddr: 0x100009FE8, symSize: 0x8 }
  - { offsetInCU: 0x1EDCB, offset: 0x1EDCB, size: 0x8, addend: 0x0, symName: __ZNSt3__18ios_base8setstateB8ue170006Ej, symObjAddr: 0x6990, symBinAddr: 0x100009FF0, symSize: 0x34 }
  - { offsetInCU: 0x1EE02, offset: 0x1EE02, size: 0x8, addend: 0x0, symName: __ZNSt3__16vectorINS0_IhNS_9allocatorIhEEEENS1_IS3_EEE22__construct_one_at_endB8ue170006IJRKS3_EEEvDpOT_, symObjAddr: 0x69C4, symBinAddr: 0x10000A024, symSize: 0x90 }
  - { offsetInCU: 0x1EE51, offset: 0x1EE51, size: 0x8, addend: 0x0, symName: __ZNSt3__16vectorINS0_IhNS_9allocatorIhEEEENS1_IS3_EEE21__push_back_slow_pathIRKS3_EEvOT_, symObjAddr: 0x6A54, symBinAddr: 0x10000A0B4, symSize: 0xD8 }
  - { offsetInCU: 0x1EEAF, offset: 0x1EEAF, size: 0x8, addend: 0x0, symName: __ZNSt3__116allocator_traitsINS_9allocatorINS_6vectorIhNS1_IhEEEEEEE9constructB8ue170006IS4_JRKS4_EvEEvRS5_PT_DpOT0_, symObjAddr: 0x6B2C, symBinAddr: 0x10000A18C, symSize: 0x34 }
  - { offsetInCU: 0x1EF06, offset: 0x1EF06, size: 0x8, addend: 0x0, symName: __ZNSt3__19allocatorINS_6vectorIhNS0_IhEEEEE9constructB8ue170006IS3_JRKS3_EEEvPT_DpOT0_, symObjAddr: 0x6B60, symBinAddr: 0x10000A1C0, symSize: 0x30 }
  - { offsetInCU: 0x1EF5C, offset: 0x1EF5C, size: 0x8, addend: 0x0, symName: __ZNSt3__16vectorINS_4pairINS0_IhNS_9allocatorIhEEEES4_EENS2_IS5_EEED2B8ue170006Ev, symObjAddr: 0x6B90, symBinAddr: 0x10000A1F0, symSize: 0x44 }
  - { offsetInCU: 0x1EF86, offset: 0x1EF86, size: 0x8, addend: 0x0, symName: __ZNSt3__16vectorINS_4pairINS0_IhNS_9allocatorIhEEEES4_EENS2_IS5_EEE16__destroy_vectorC1B8ue170006ERS7_, symObjAddr: 0x6BD4, symBinAddr: 0x10000A234, symSize: 0x34 }
  - { offsetInCU: 0x1EFBF, offset: 0x1EFBF, size: 0x8, addend: 0x0, symName: __ZNSt3__16vectorINS_4pairINS0_IhNS_9allocatorIhEEEES4_EENS2_IS5_EEE16__destroy_vectorclB8ue170006Ev, symObjAddr: 0x6C08, symBinAddr: 0x10000A268, symSize: 0x90 }
  - { offsetInCU: 0x1EFE5, offset: 0x1EFE5, size: 0x8, addend: 0x0, symName: __ZNSt3__16vectorINS_4pairINS0_IhNS_9allocatorIhEEEES4_EENS2_IS5_EEE16__destroy_vectorC2B8ue170006ERS7_, symObjAddr: 0x6C98, symBinAddr: 0x10000A2F8, symSize: 0x20 }
  - { offsetInCU: 0x1F01E, offset: 0x1F01E, size: 0x8, addend: 0x0, symName: __ZNSt3__16vectorINS_4pairINS0_IhNS_9allocatorIhEEEES4_EENS2_IS5_EEE7__clearB8ue170006Ev, symObjAddr: 0x6CB8, symBinAddr: 0x10000A318, symSize: 0x28 }
  - { offsetInCU: 0x1F044, offset: 0x1F044, size: 0x8, addend: 0x0, symName: __ZNKSt3__16vectorINS_4pairINS0_IhNS_9allocatorIhEEEES4_EENS2_IS5_EEE17__annotate_deleteB8ue170006Ev, symObjAddr: 0x6CE0, symBinAddr: 0x10000A340, symSize: 0xD4 }
  - { offsetInCU: 0x1F06A, offset: 0x1F06A, size: 0x8, addend: 0x0, symName: __ZNSt3__116allocator_traitsINS_9allocatorINS_4pairINS_6vectorIhNS1_IhEEEES5_EEEEE10deallocateB8ue170006ERS7_PS6_m, symObjAddr: 0x6DB4, symBinAddr: 0x10000A414, symSize: 0x34 }
  - { offsetInCU: 0x1F0AC, offset: 0x1F0AC, size: 0x8, addend: 0x0, symName: __ZNSt3__16vectorINS_4pairINS0_IhNS_9allocatorIhEEEES4_EENS2_IS5_EEE7__allocB8ue170006Ev, symObjAddr: 0x6DE8, symBinAddr: 0x10000A448, symSize: 0x28 }
  - { offsetInCU: 0x1F0D2, offset: 0x1F0D2, size: 0x8, addend: 0x0, symName: __ZNKSt3__16vectorINS_4pairINS0_IhNS_9allocatorIhEEEES4_EENS2_IS5_EEE8capacityB8ue170006Ev, symObjAddr: 0x6E10, symBinAddr: 0x10000A470, symSize: 0x40 }
  - { offsetInCU: 0x1F0F8, offset: 0x1F0F8, size: 0x8, addend: 0x0, symName: __ZNSt3__16vectorINS_4pairINS0_IhNS_9allocatorIhEEEES4_EENS2_IS5_EEE22__base_destruct_at_endB8ue170006EPS5_, symObjAddr: 0x6E50, symBinAddr: 0x10000A4B0, symSize: 0x8C }
  - { offsetInCU: 0x1F13C, offset: 0x1F13C, size: 0x8, addend: 0x0, symName: __ZNSt3__116allocator_traitsINS_9allocatorINS_4pairINS_6vectorIhNS1_IhEEEES5_EEEEE7destroyB8ue170006IS6_vEEvRS7_PT_, symObjAddr: 0x6EDC, symBinAddr: 0x10000A53C, symSize: 0x2C }
  - { offsetInCU: 0x1F179, offset: 0x1F179, size: 0x8, addend: 0x0, symName: __ZNSt3__19allocatorINS_4pairINS_6vectorIhNS0_IhEEEES4_EEE7destroyB8ue170006EPS5_, symObjAddr: 0x6F1C, symBinAddr: 0x10000A57C, symSize: 0x28 }
  - { offsetInCU: 0x1F1AD, offset: 0x1F1AD, size: 0x8, addend: 0x0, symName: __ZNKSt3__16vectorINS_4pairINS0_IhNS_9allocatorIhEEEES4_EENS2_IS5_EEE31__annotate_contiguous_containerB8ue170006EPKvS9_S9_S9_, symObjAddr: 0x6F44, symBinAddr: 0x10000A5A4, symSize: 0x20 }
  - { offsetInCU: 0x1F1FF, offset: 0x1F1FF, size: 0x8, addend: 0x0, symName: __ZNKSt3__16vectorINS_4pairINS0_IhNS_9allocatorIhEEEES4_EENS2_IS5_EEE4dataB8ue170006Ev, symObjAddr: 0x6F64, symBinAddr: 0x10000A5C4, symSize: 0x28 }
  - { offsetInCU: 0x1F225, offset: 0x1F225, size: 0x8, addend: 0x0, symName: __ZNKSt3__16vectorINS_4pairINS0_IhNS_9allocatorIhEEEES4_EENS2_IS5_EEE4sizeB8ue170006Ev, symObjAddr: 0x6F8C, symBinAddr: 0x10000A5EC, symSize: 0x28 }
  - { offsetInCU: 0x1F24B, offset: 0x1F24B, size: 0x8, addend: 0x0, symName: __ZNSt3__19allocatorINS_4pairINS_6vectorIhNS0_IhEEEES4_EEE10deallocateB8ue170006EPS5_m, symObjAddr: 0x6FB4, symBinAddr: 0x10000A614, symSize: 0x44 }
  - { offsetInCU: 0x1F28D, offset: 0x1F28D, size: 0x8, addend: 0x0, symName: __ZNSt3__117__compressed_pairIPNS_4pairINS_6vectorIhNS_9allocatorIhEEEES5_EENS3_IS6_EEE6secondB8ue170006Ev, symObjAddr: 0x6FF8, symBinAddr: 0x10000A658, symSize: 0x24 }
  - { offsetInCU: 0x1F2B3, offset: 0x1F2B3, size: 0x8, addend: 0x0, symName: __ZNSt3__122__compressed_pair_elemINS_9allocatorINS_4pairINS_6vectorIhNS1_IhEEEES5_EEEELi1ELb1EE5__getB8ue170006Ev, symObjAddr: 0x701C, symBinAddr: 0x10000A67C, symSize: 0x14 }
  - { offsetInCU: 0x1F2D9, offset: 0x1F2D9, size: 0x8, addend: 0x0, symName: __ZNKSt3__16vectorINS_4pairINS0_IhNS_9allocatorIhEEEES4_EENS2_IS5_EEE9__end_capB8ue170006Ev, symObjAddr: 0x7030, symBinAddr: 0x10000A690, symSize: 0x28 }
  - { offsetInCU: 0x1F2FF, offset: 0x1F2FF, size: 0x8, addend: 0x0, symName: __ZNKSt3__117__compressed_pairIPNS_4pairINS_6vectorIhNS_9allocatorIhEEEES5_EENS3_IS6_EEE5firstB8ue170006Ev, symObjAddr: 0x7058, symBinAddr: 0x10000A6B8, symSize: 0x24 }
  - { offsetInCU: 0x1F325, offset: 0x1F325, size: 0x8, addend: 0x0, symName: __ZNKSt3__122__compressed_pair_elemIPNS_4pairINS_6vectorIhNS_9allocatorIhEEEES5_EELi0ELb0EE5__getB8ue170006Ev, symObjAddr: 0x707C, symBinAddr: 0x10000A6DC, symSize: 0x14 }
  - { offsetInCU: 0x1F34B, offset: 0x1F34B, size: 0x8, addend: 0x0, symName: __ZNSt3__16vectorINS_4pairINS0_IhNS_9allocatorIhEEEES4_EENS2_IS5_EEE13__move_assignERS7_NS_17integral_constantIbLb1EEE, symObjAddr: 0x7090, symBinAddr: 0x10000A6F0, symSize: 0x94 }
  - { offsetInCU: 0x1F38D, offset: 0x1F38D, size: 0x8, addend: 0x0, symName: __ZNSt3__16vectorINS_4pairINS0_IhNS_9allocatorIhEEEES4_EENS2_IS5_EEE13__vdeallocateEv, symObjAddr: 0x7124, symBinAddr: 0x10000A784, symSize: 0x94 }
  - { offsetInCU: 0x1F3B5, offset: 0x1F3B5, size: 0x8, addend: 0x0, symName: __ZNSt3__16vectorINS_4pairINS0_IhNS_9allocatorIhEEEES4_EENS2_IS5_EEE19__move_assign_allocB8ue170006ERS7_, symObjAddr: 0x71B8, symBinAddr: 0x10000A818, symSize: 0x2C }
  - { offsetInCU: 0x1F3EA, offset: 0x1F3EA, size: 0x8, addend: 0x0, symName: __ZNSt3__16vectorINS_4pairINS0_IhNS_9allocatorIhEEEES4_EENS2_IS5_EEE9__end_capB8ue170006Ev, symObjAddr: 0x71E4, symBinAddr: 0x10000A844, symSize: 0x28 }
  - { offsetInCU: 0x1F410, offset: 0x1F410, size: 0x8, addend: 0x0, symName: __ZNSt3__16vectorINS_4pairINS0_IhNS_9allocatorIhEEEES4_EENS2_IS5_EEE5clearB8ue170006Ev, symObjAddr: 0x720C, symBinAddr: 0x10000A86C, symSize: 0x44 }
  - { offsetInCU: 0x1F445, offset: 0x1F445, size: 0x8, addend: 0x0, symName: __ZNKSt3__16vectorINS_4pairINS0_IhNS_9allocatorIhEEEES4_EENS2_IS5_EEE17__annotate_shrinkB8ue170006Em, symObjAddr: 0x7250, symBinAddr: 0x10000A8B0, symSize: 0xD0 }
  - { offsetInCU: 0x1F47A, offset: 0x1F47A, size: 0x8, addend: 0x0, symName: __ZNSt3__16vectorINS_4pairINS0_IhNS_9allocatorIhEEEES4_EENS2_IS5_EEE19__move_assign_allocB8ue170006ERS7_NS_17integral_constantIbLb1EEE, symObjAddr: 0x7320, symBinAddr: 0x10000A980, symSize: 0x38 }
  - { offsetInCU: 0x1F4BA, offset: 0x1F4BA, size: 0x8, addend: 0x0, symName: __ZNSt3__117__compressed_pairIPNS_4pairINS_6vectorIhNS_9allocatorIhEEEES5_EENS3_IS6_EEE5firstB8ue170006Ev, symObjAddr: 0x7358, symBinAddr: 0x10000A9B8, symSize: 0x24 }
  - { offsetInCU: 0x1F4E0, offset: 0x1F4E0, size: 0x8, addend: 0x0, symName: __ZNSt3__122__compressed_pair_elemIPNS_4pairINS_6vectorIhNS_9allocatorIhEEEES5_EELi0ELb0EE5__getB8ue170006Ev, symObjAddr: 0x737C, symBinAddr: 0x10000A9DC, symSize: 0x14 }
  - { offsetInCU: 0x1F506, offset: 0x1F506, size: 0x8, addend: 0x0, symName: __ZNSt3__16vectorINS0_IhNS_9allocatorIhEEEENS1_IS3_EEEC2ERKS5_, symObjAddr: 0x7390, symBinAddr: 0x10000A9F0, symSize: 0x94 }
  - { offsetInCU: 0x1F541, offset: 0x1F541, size: 0x8, addend: 0x0, symName: __ZNSt3__116allocator_traitsINS_9allocatorINS_6vectorIhNS1_IhEEEEEEE37select_on_container_copy_constructionB8ue170006IS5_vvEES5_RKS5_, symObjAddr: 0x7424, symBinAddr: 0x10000AA84, symSize: 0x10 }
  - { offsetInCU: 0x1F575, offset: 0x1F575, size: 0x8, addend: 0x0, symName: __ZNSt3__117__compressed_pairIPNS_6vectorIhNS_9allocatorIhEEEENS2_IS4_EEEC1B8ue170006IDnS6_EEOT_OT0_, symObjAddr: 0x7434, symBinAddr: 0x10000AA94, symSize: 0x3C }
  - { offsetInCU: 0x1F5CD, offset: 0x1F5CD, size: 0x8, addend: 0x0, symName: __ZNSt3__16vectorINS0_IhNS_9allocatorIhEEEENS1_IS3_EEE16__init_with_sizeB8ue170006IPS3_S7_EEvT_T0_m, symObjAddr: 0x7470, symBinAddr: 0x10000AAD0, symSize: 0xB8 }
  - { offsetInCU: 0x1F641, offset: 0x1F641, size: 0x8, addend: 0x0, symName: __ZNSt3__117__compressed_pairIPNS_6vectorIhNS_9allocatorIhEEEENS2_IS4_EEEC2B8ue170006IDnS6_EEOT_OT0_, symObjAddr: 0x7528, symBinAddr: 0x10000AB88, symSize: 0x44 }
  - { offsetInCU: 0x1F699, offset: 0x1F699, size: 0x8, addend: 0x0, symName: __ZNSt3__122__compressed_pair_elemINS_9allocatorINS_6vectorIhNS1_IhEEEEEELi1ELb1EEC2B8ue170006IS5_vEEOT_, symObjAddr: 0x756C, symBinAddr: 0x10000ABCC, symSize: 0x18 }
  - { offsetInCU: 0x1F6DB, offset: 0x1F6DB, size: 0x8, addend: 0x0, symName: __ZNSt3__16vectorINS0_IhNS_9allocatorIhEEEENS1_IS3_EEE11__vallocateB8ue170006Em, symObjAddr: 0x75C4, symBinAddr: 0x10000AC24, symSize: 0xB4 }
  - { offsetInCU: 0x1F71F, offset: 0x1F71F, size: 0x8, addend: 0x0, symName: __ZNSt3__16vectorINS0_IhNS_9allocatorIhEEEENS1_IS3_EEE18__construct_at_endIPS3_S7_EEvT_T0_m, symObjAddr: 0x7678, symBinAddr: 0x10000ACD8, symSize: 0x8C }
  - { offsetInCU: 0x1F795, offset: 0x1F795, size: 0x8, addend: 0x0, symName: __ZNSt3__128__exception_guard_exceptionsINS_6vectorINS1_IhNS_9allocatorIhEEEENS2_IS4_EEE16__destroy_vectorEE10__completeB8ue170006Ev, symObjAddr: 0x7704, symBinAddr: 0x10000AD64, symSize: 0x1C }
  - { offsetInCU: 0x1F7BB, offset: 0x1F7BB, size: 0x8, addend: 0x0, symName: __ZNSt3__128__exception_guard_exceptionsINS_6vectorINS1_IhNS_9allocatorIhEEEENS2_IS4_EEE16__destroy_vectorEED1B8ue170006Ev, symObjAddr: 0x7720, symBinAddr: 0x10000AD80, symSize: 0x2C }
  - { offsetInCU: 0x1F7E5, offset: 0x1F7E5, size: 0x8, addend: 0x0, symName: __ZNSt3__128__exception_guard_exceptionsINS_6vectorINS1_IhNS_9allocatorIhEEEENS2_IS4_EEE16__destroy_vectorEEC1B8ue170006ES7_, symObjAddr: 0x774C, symBinAddr: 0x10000ADAC, symSize: 0x34 }
  - { offsetInCU: 0x1F81D, offset: 0x1F81D, size: 0x8, addend: 0x0, symName: __ZNSt3__128__exception_guard_exceptionsINS_6vectorINS1_IhNS_9allocatorIhEEEENS2_IS4_EEE16__destroy_vectorEEC2B8ue170006ES7_, symObjAddr: 0x7780, symBinAddr: 0x10000ADE0, symSize: 0x24 }
  - { offsetInCU: 0x1F873, offset: 0x1F873, size: 0x8, addend: 0x0, symName: __ZNSt3__14pairIPNS_6vectorIhNS_9allocatorIhEEEES5_EC1B8ue170006IS5_S5_LPv0EEEOT_OT0_, symObjAddr: 0x7A10, symBinAddr: 0x10000B070, symSize: 0x3C }
  - { offsetInCU: 0x1F8D1, offset: 0x1F8D1, size: 0x8, addend: 0x0, symName: __ZNSt3__14pairIPNS_6vectorIhNS_9allocatorIhEEEES5_EC2B8ue170006IS5_S5_LPv0EEEOT_OT0_, symObjAddr: 0x7A4C, symBinAddr: 0x10000B0AC, symSize: 0x34 }
  - { offsetInCU: 0x1F92F, offset: 0x1F92F, size: 0x8, addend: 0x0, symName: __ZNSt3__129_AllocatorDestroyRangeReverseINS_9allocatorINS_6vectorIhNS1_IhEEEEEEPS4_EC1B8ue170006ERS5_RS6_S9_, symObjAddr: 0x7ACC, symBinAddr: 0x10000B12C, symSize: 0x44 }
  - { offsetInCU: 0x1F986, offset: 0x1F986, size: 0x8, addend: 0x0, symName: __ZNSt3__116allocator_traitsINS_9allocatorINS_6vectorIhNS1_IhEEEEEEE9constructB8ue170006IS4_JRS4_EvEEvRS5_PT_DpOT0_, symObjAddr: 0x7B10, symBinAddr: 0x10000B170, symSize: 0x34 }
  - { offsetInCU: 0x1F9DD, offset: 0x1F9DD, size: 0x8, addend: 0x0, symName: __ZNSt3__128__exception_guard_exceptionsINS_29_AllocatorDestroyRangeReverseINS_9allocatorINS_6vectorIhNS2_IhEEEEEEPS5_EEE10__completeB8ue170006Ev, symObjAddr: 0x7B44, symBinAddr: 0x10000B1A4, symSize: 0x1C }
  - { offsetInCU: 0x1FA03, offset: 0x1FA03, size: 0x8, addend: 0x0, symName: __ZNSt3__128__exception_guard_exceptionsINS_29_AllocatorDestroyRangeReverseINS_9allocatorINS_6vectorIhNS2_IhEEEEEEPS5_EEED1B8ue170006Ev, symObjAddr: 0x7B60, symBinAddr: 0x10000B1C0, symSize: 0x2C }
  - { offsetInCU: 0x1FA2D, offset: 0x1FA2D, size: 0x8, addend: 0x0, symName: __ZNSt3__128__exception_guard_exceptionsINS_29_AllocatorDestroyRangeReverseINS_9allocatorINS_6vectorIhNS2_IhEEEEEEPS5_EEEC1B8ue170006ES8_, symObjAddr: 0x7B8C, symBinAddr: 0x10000B1EC, symSize: 0x34 }
  - { offsetInCU: 0x1FA66, offset: 0x1FA66, size: 0x8, addend: 0x0, symName: __ZNSt3__128__exception_guard_exceptionsINS_29_AllocatorDestroyRangeReverseINS_9allocatorINS_6vectorIhNS2_IhEEEEEEPS5_EEEC2B8ue170006ES8_, symObjAddr: 0x7BC0, symBinAddr: 0x10000B220, symSize: 0x30 }
  - { offsetInCU: 0x1FA9F, offset: 0x1FA9F, size: 0x8, addend: 0x0, symName: __ZNSt3__129_AllocatorDestroyRangeReverseINS_9allocatorINS_6vectorIhNS1_IhEEEEEEPS4_EC2B8ue170006ERS5_RS6_S9_, symObjAddr: 0x7BF0, symBinAddr: 0x10000B250, symSize: 0x38 }
  - { offsetInCU: 0x1FAF6, offset: 0x1FAF6, size: 0x8, addend: 0x0, symName: __ZNSt3__19allocatorINS_6vectorIhNS0_IhEEEEE9constructB8ue170006IS3_JRS3_EEEvPT_DpOT0_, symObjAddr: 0x7C28, symBinAddr: 0x10000B288, symSize: 0x30 }
  - { offsetInCU: 0x1FB4C, offset: 0x1FB4C, size: 0x8, addend: 0x0, symName: __ZNSt3__128__exception_guard_exceptionsINS_29_AllocatorDestroyRangeReverseINS_9allocatorINS_6vectorIhNS2_IhEEEEEEPS5_EEED2B8ue170006Ev, symObjAddr: 0x7C58, symBinAddr: 0x10000B2B8, symSize: 0x50 }
  - { offsetInCU: 0x1FB76, offset: 0x1FB76, size: 0x8, addend: 0x0, symName: __ZNKSt3__129_AllocatorDestroyRangeReverseINS_9allocatorINS_6vectorIhNS1_IhEEEEEEPS4_EclB8ue170006Ev, symObjAddr: 0x7CA8, symBinAddr: 0x10000B308, symSize: 0x68 }
  - { offsetInCU: 0x1FB9C, offset: 0x1FB9C, size: 0x8, addend: 0x0, symName: __ZNSt3__118__unwrap_iter_implIPNS_6vectorIhNS_9allocatorIhEEEELb1EE8__unwrapB8ue170006ES5_, symObjAddr: 0x7D80, symBinAddr: 0x10000B3E0, symSize: 0x24 }
  - { offsetInCU: 0x1FBBF, offset: 0x1FBBF, size: 0x8, addend: 0x0, symName: __ZNSt3__118__unwrap_iter_implIPNS_6vectorIhNS_9allocatorIhEEEELb1EE8__rewrapB8ue170006ES5_S5_, symObjAddr: 0x7DA4, symBinAddr: 0x10000B404, symSize: 0x58 }
  - { offsetInCU: 0x1FBF0, offset: 0x1FBF0, size: 0x8, addend: 0x0, symName: __ZNSt3__128__exception_guard_exceptionsINS_6vectorINS1_IhNS_9allocatorIhEEEENS2_IS4_EEE16__destroy_vectorEED2B8ue170006Ev, symObjAddr: 0x7DFC, symBinAddr: 0x10000B45C, symSize: 0x48 }
  - { offsetInCU: 0x1FC1A, offset: 0x1FC1A, size: 0x8, addend: 0x0, symName: __ZNSt3__16vectorINS0_IhNS_9allocatorIhEEEENS1_IS3_EEE13__move_assignERS5_NS_17integral_constantIbLb1EEE, symObjAddr: 0x7E44, symBinAddr: 0x10000B4A4, symSize: 0x94 }
  - { offsetInCU: 0x1FC5C, offset: 0x1FC5C, size: 0x8, addend: 0x0, symName: __ZNSt3__16vectorINS0_IhNS_9allocatorIhEEEENS1_IS3_EEE13__vdeallocateEv, symObjAddr: 0x7ED8, symBinAddr: 0x10000B538, symSize: 0x94 }
  - { offsetInCU: 0x1FC84, offset: 0x1FC84, size: 0x8, addend: 0x0, symName: __ZNSt3__16vectorINS0_IhNS_9allocatorIhEEEENS1_IS3_EEE19__move_assign_allocB8ue170006ERS5_, symObjAddr: 0x7F6C, symBinAddr: 0x10000B5CC, symSize: 0x2C }
  - { offsetInCU: 0x1FCB9, offset: 0x1FCB9, size: 0x8, addend: 0x0, symName: __ZNSt3__16vectorINS0_IhNS_9allocatorIhEEEENS1_IS3_EEE5clearB8ue170006Ev, symObjAddr: 0x7F98, symBinAddr: 0x10000B5F8, symSize: 0x44 }
  - { offsetInCU: 0x1FCEE, offset: 0x1FCEE, size: 0x8, addend: 0x0, symName: __ZNKSt3__16vectorINS0_IhNS_9allocatorIhEEEENS1_IS3_EEE17__annotate_shrinkB8ue170006Em, symObjAddr: 0x7FDC, symBinAddr: 0x10000B63C, symSize: 0xD0 }
  - { offsetInCU: 0x1FD23, offset: 0x1FD23, size: 0x8, addend: 0x0, symName: __ZNSt3__16vectorINS0_IhNS_9allocatorIhEEEENS1_IS3_EEE19__move_assign_allocB8ue170006ERS5_NS_17integral_constantIbLb1EEE, symObjAddr: 0x80AC, symBinAddr: 0x10000B70C, symSize: 0x38 }
  - { offsetInCU: 0x1FD77, offset: 0x1FD77, size: 0x8, addend: 0x0, symName: __ZNSt3__16__treeINS_12__value_typeIiNS_4pairINS_6vectorIhNS_9allocatorIhEEEES6_EEEENS_19__map_value_compareIiS8_NS_4lessIiEELb1EEENS4_IS8_EEE25__emplace_unique_key_argsIiJRKNS_21piecewise_construct_tENS_5tupleIJRKiEEENSJ_IJEEEEEENS2_INS_15__tree_iteratorIS8_PNS_11__tree_nodeIS8_PvEElEEbEERKT_DpOT0_, symObjAddr: 0x80E4, symBinAddr: 0x10000B744, symSize: 0x100 }
  - { offsetInCU: 0x1FE4D, offset: 0x1FE4D, size: 0x8, addend: 0x0, symName: __ZNKSt3__115__tree_iteratorINS_12__value_typeIiNS_4pairINS_6vectorIhNS_9allocatorIhEEEES6_EEEEPNS_11__tree_nodeIS8_PvEElEptB8ue170006Ev, symObjAddr: 0x8214, symBinAddr: 0x10000B874, symSize: 0x2C }
  - { offsetInCU: 0x1FE73, offset: 0x1FE73, size: 0x8, addend: 0x0, symName: __ZNSt3__16__treeINS_12__value_typeIiNS_4pairINS_6vectorIhNS_9allocatorIhEEEES6_EEEENS_19__map_value_compareIiS8_NS_4lessIiEELb1EEENS4_IS8_EEE12__find_equalIiEERPNS_16__tree_node_baseIPvEERPNS_15__tree_end_nodeISJ_EERKT_, symObjAddr: 0x8240, symBinAddr: 0x10000B8A0, symSize: 0x184 }
  - { offsetInCU: 0x1FEE0, offset: 0x1FEE0, size: 0x8, addend: 0x0, symName: __ZNSt3__16__treeINS_12__value_typeIiNS_4pairINS_6vectorIhNS_9allocatorIhEEEES6_EEEENS_19__map_value_compareIiS8_NS_4lessIiEELb1EEENS4_IS8_EEE16__construct_nodeIJRKNS_21piecewise_construct_tENS_5tupleIJRKiEEENSJ_IJEEEEEENS_10unique_ptrINS_11__tree_nodeIS8_PvEENS_22__tree_node_destructorINS4_ISR_EEEEEEDpOT_, symObjAddr: 0x83C4, symBinAddr: 0x10000BA24, symSize: 0x120 }
  - { offsetInCU: 0x1FF69, offset: 0x1FF69, size: 0x8, addend: 0x0, symName: __ZNSt3__16__treeINS_12__value_typeIiNS_4pairINS_6vectorIhNS_9allocatorIhEEEES6_EEEENS_19__map_value_compareIiS8_NS_4lessIiEELb1EEENS4_IS8_EEE16__insert_node_atEPNS_15__tree_end_nodeIPNS_16__tree_node_baseIPvEEEERSJ_SJ_, symObjAddr: 0x84E4, symBinAddr: 0x10000BB44, symSize: 0xCC }
  - { offsetInCU: 0x1FFBE, offset: 0x1FFBE, size: 0x8, addend: 0x0, symName: __ZNKSt3__110unique_ptrINS_11__tree_nodeINS_12__value_typeIiNS_4pairINS_6vectorIhNS_9allocatorIhEEEES7_EEEEPvEENS_22__tree_node_destructorINS5_ISB_EEEEE3getB8ue170006Ev, symObjAddr: 0x85B0, symBinAddr: 0x10000BC10, symSize: 0x28 }
  - { offsetInCU: 0x1FFE4, offset: 0x1FFE4, size: 0x8, addend: 0x0, symName: __ZNSt3__110unique_ptrINS_11__tree_nodeINS_12__value_typeIiNS_4pairINS_6vectorIhNS_9allocatorIhEEEES7_EEEEPvEENS_22__tree_node_destructorINS5_ISB_EEEEE7releaseB8ue170006Ev, symObjAddr: 0x85D8, symBinAddr: 0x10000BC38, symSize: 0x44 }
  - { offsetInCU: 0x20019, offset: 0x20019, size: 0x8, addend: 0x0, symName: __ZNSt3__110unique_ptrINS_11__tree_nodeINS_12__value_typeIiNS_4pairINS_6vectorIhNS_9allocatorIhEEEES7_EEEEPvEENS_22__tree_node_destructorINS5_ISB_EEEEED1B8ue170006Ev, symObjAddr: 0x861C, symBinAddr: 0x10000BC7C, symSize: 0x2C }
  - { offsetInCU: 0x20043, offset: 0x20043, size: 0x8, addend: 0x0, symName: __ZNSt3__115__tree_iteratorINS_12__value_typeIiNS_4pairINS_6vectorIhNS_9allocatorIhEEEES6_EEEEPNS_11__tree_nodeIS8_PvEElEC1B8ue170006ESC_, symObjAddr: 0x8648, symBinAddr: 0x10000BCA8, symSize: 0x34 }
  - { offsetInCU: 0x20086, offset: 0x20086, size: 0x8, addend: 0x0, symName: __ZNSt3__14pairINS_15__tree_iteratorINS_12__value_typeIiNS0_INS_6vectorIhNS_9allocatorIhEEEES6_EEEEPNS_11__tree_nodeIS8_PvEElEEbEC1B8ue170006ISD_RbLSA_0EEEOT_OT0_, symObjAddr: 0x867C, symBinAddr: 0x10000BCDC, symSize: 0x3C }
  - { offsetInCU: 0x200E4, offset: 0x200E4, size: 0x8, addend: 0x0, symName: __ZNKSt3__16__treeINS_12__value_typeIiNS_4pairINS_6vectorIhNS_9allocatorIhEEEES6_EEEENS_19__map_value_compareIiS8_NS_4lessIiEELb1EEENS4_IS8_EEE10__root_ptrB8ue170006Ev, symObjAddr: 0x86B8, symBinAddr: 0x10000BD18, symSize: 0x24 }
  - { offsetInCU: 0x2010A, offset: 0x2010A, size: 0x8, addend: 0x0, symName: __ZNSt3__16__treeINS_12__value_typeIiNS_4pairINS_6vectorIhNS_9allocatorIhEEEES6_EEEENS_19__map_value_compareIiS8_NS_4lessIiEELb1EEENS4_IS8_EEE10value_compB8ue170006Ev, symObjAddr: 0x86DC, symBinAddr: 0x10000BD3C, symSize: 0x28 }
  - { offsetInCU: 0x20130, offset: 0x20130, size: 0x8, addend: 0x0, symName: __ZNKSt3__119__map_value_compareIiNS_12__value_typeIiNS_4pairINS_6vectorIhNS_9allocatorIhEEEES6_EEEENS_4lessIiEELb1EEclB8ue170006ERKiRKS8_, symObjAddr: 0x8704, symBinAddr: 0x10000BD64, symSize: 0x50 }
  - { offsetInCU: 0x20174, offset: 0x20174, size: 0x8, addend: 0x0, symName: __ZNKSt3__119__map_value_compareIiNS_12__value_typeIiNS_4pairINS_6vectorIhNS_9allocatorIhEEEES6_EEEENS_4lessIiEELb1EEclB8ue170006ERKS8_RKi, symObjAddr: 0x8754, symBinAddr: 0x10000BDB4, symSize: 0x48 }
  - { offsetInCU: 0x201B8, offset: 0x201B8, size: 0x8, addend: 0x0, symName: __ZNSt3__117__compressed_pairImNS_19__map_value_compareIiNS_12__value_typeIiNS_4pairINS_6vectorIhNS_9allocatorIhEEEES7_EEEENS_4lessIiEELb1EEEE6secondB8ue170006Ev, symObjAddr: 0x879C, symBinAddr: 0x10000BDFC, symSize: 0x24 }
  - { offsetInCU: 0x201DE, offset: 0x201DE, size: 0x8, addend: 0x0, symName: __ZNSt3__122__compressed_pair_elemINS_19__map_value_compareIiNS_12__value_typeIiNS_4pairINS_6vectorIhNS_9allocatorIhEEEES7_EEEENS_4lessIiEELb1EEELi1ELb1EE5__getB8ue170006Ev, symObjAddr: 0x87C0, symBinAddr: 0x10000BE20, symSize: 0x14 }
  - { offsetInCU: 0x20204, offset: 0x20204, size: 0x8, addend: 0x0, symName: __ZNKSt3__14lessIiEclB8ue170006ERKiS3_, symObjAddr: 0x87D4, symBinAddr: 0x10000BE34, symSize: 0x34 }
  - { offsetInCU: 0x20248, offset: 0x20248, size: 0x8, addend: 0x0, symName: __ZNKSt3__112__value_typeIiNS_4pairINS_6vectorIhNS_9allocatorIhEEEES5_EEE11__get_valueB8ue170006Ev, symObjAddr: 0x8808, symBinAddr: 0x10000BE68, symSize: 0x14 }
  - { offsetInCU: 0x2026E, offset: 0x2026E, size: 0x8, addend: 0x0, symName: __ZNSt3__116allocator_traitsINS_9allocatorINS_11__tree_nodeINS_12__value_typeIiNS_4pairINS_6vectorIhNS1_IhEEEES7_EEEEPvEEEEE8allocateB8ue170006ERSC_m, symObjAddr: 0x881C, symBinAddr: 0x10000BE7C, symSize: 0x2C }
  - { offsetInCU: 0x202A1, offset: 0x202A1, size: 0x8, addend: 0x0, symName: __ZNSt3__122__tree_node_destructorINS_9allocatorINS_11__tree_nodeINS_12__value_typeIiNS_4pairINS_6vectorIhNS1_IhEEEES7_EEEEPvEEEEEC1B8ue170006ERSC_b, symObjAddr: 0x8848, symBinAddr: 0x10000BEA8, symSize: 0x48 }
  - { offsetInCU: 0x202EE, offset: 0x202EE, size: 0x8, addend: 0x0, symName: __ZNSt3__110unique_ptrINS_11__tree_nodeINS_12__value_typeIiNS_4pairINS_6vectorIhNS_9allocatorIhEEEES7_EEEEPvEENS_22__tree_node_destructorINS5_ISB_EEEEEC1B8ue170006ILb1EvEEPSB_NS_16__dependent_typeINS_27__unique_ptr_deleter_sfinaeISE_EEXT_EE20__good_rval_ref_typeE, symObjAddr: 0x8890, symBinAddr: 0x10000BEF0, symSize: 0x3C }
  - { offsetInCU: 0x2033F, offset: 0x2033F, size: 0x8, addend: 0x0, symName: __ZNSt3__116allocator_traitsINS_9allocatorINS_11__tree_nodeINS_12__value_typeIiNS_4pairINS_6vectorIhNS1_IhEEEES7_EEEEPvEEEEE9constructB8ue170006INS4_IKiS8_EEJRKNS_21piecewise_construct_tENS_5tupleIJRSF_EEENSK_IJEEEEvEEvRSC_PT_DpOT0_, symObjAddr: 0x88CC, symBinAddr: 0x10000BF2C, symSize: 0x44 }
  - { offsetInCU: 0x203BE, offset: 0x203BE, size: 0x8, addend: 0x0, symName: __ZNKSt3__110unique_ptrINS_11__tree_nodeINS_12__value_typeIiNS_4pairINS_6vectorIhNS_9allocatorIhEEEES7_EEEEPvEENS_22__tree_node_destructorINS5_ISB_EEEEEptB8ue170006Ev, symObjAddr: 0x8910, symBinAddr: 0x10000BF70, symSize: 0x28 }
  - { offsetInCU: 0x203E4, offset: 0x203E4, size: 0x8, addend: 0x0, symName: __ZNSt3__110unique_ptrINS_11__tree_nodeINS_12__value_typeIiNS_4pairINS_6vectorIhNS_9allocatorIhEEEES7_EEEEPvEENS_22__tree_node_destructorINS5_ISB_EEEEE11get_deleterB8ue170006Ev, symObjAddr: 0x8938, symBinAddr: 0x10000BF98, symSize: 0x24 }
  - { offsetInCU: 0x2040A, offset: 0x2040A, size: 0x8, addend: 0x0, symName: __ZNSt3__19allocatorINS_11__tree_nodeINS_12__value_typeIiNS_4pairINS_6vectorIhNS0_IhEEEES6_EEEEPvEEE8allocateB8ue170006Em, symObjAddr: 0x895C, symBinAddr: 0x10000BFBC, symSize: 0x5C }
  - { offsetInCU: 0x20448, offset: 0x20448, size: 0x8, addend: 0x0, symName: __ZNSt3__116allocator_traitsINS_9allocatorINS_11__tree_nodeINS_12__value_typeIiNS_4pairINS_6vectorIhNS1_IhEEEES7_EEEEPvEEEEE8max_sizeB8ue170006ISC_vEEmRKSC_, symObjAddr: 0x89B8, symBinAddr: 0x10000C018, symSize: 0x24 }
  - { offsetInCU: 0x20476, offset: 0x20476, size: 0x8, addend: 0x0, symName: __ZNKSt3__19allocatorINS_11__tree_nodeINS_12__value_typeIiNS_4pairINS_6vectorIhNS0_IhEEEES6_EEEEPvEEE8max_sizeB8ue170006Ev, symObjAddr: 0x89DC, symBinAddr: 0x10000C03C, symSize: 0x20 }
  - { offsetInCU: 0x2049C, offset: 0x2049C, size: 0x8, addend: 0x0, symName: __ZNSt3__122__tree_node_destructorINS_9allocatorINS_11__tree_nodeINS_12__value_typeIiNS_4pairINS_6vectorIhNS1_IhEEEES7_EEEEPvEEEEEC2B8ue170006ERSC_b, symObjAddr: 0x89FC, symBinAddr: 0x10000C05C, symSize: 0x38 }
  - { offsetInCU: 0x204E4, offset: 0x204E4, size: 0x8, addend: 0x0, symName: __ZNSt3__110unique_ptrINS_11__tree_nodeINS_12__value_typeIiNS_4pairINS_6vectorIhNS_9allocatorIhEEEES7_EEEEPvEENS_22__tree_node_destructorINS5_ISB_EEEEEC2B8ue170006ILb1EvEEPSB_NS_16__dependent_typeINS_27__unique_ptr_deleter_sfinaeISE_EEXT_EE20__good_rval_ref_typeE, symObjAddr: 0x8A34, symBinAddr: 0x10000C094, symSize: 0x48 }
  - { offsetInCU: 0x20535, offset: 0x20535, size: 0x8, addend: 0x0, symName: __ZNSt3__117__compressed_pairIPNS_11__tree_nodeINS_12__value_typeIiNS_4pairINS_6vectorIhNS_9allocatorIhEEEES7_EEEEPvEENS_22__tree_node_destructorINS5_ISB_EEEEEC1B8ue170006IRSC_SF_EEOT_OT0_, symObjAddr: 0x8A7C, symBinAddr: 0x10000C0DC, symSize: 0x3C }
  - { offsetInCU: 0x2058D, offset: 0x2058D, size: 0x8, addend: 0x0, symName: __ZNSt3__117__compressed_pairIPNS_11__tree_nodeINS_12__value_typeIiNS_4pairINS_6vectorIhNS_9allocatorIhEEEES7_EEEEPvEENS_22__tree_node_destructorINS5_ISB_EEEEEC2B8ue170006IRSC_SF_EEOT_OT0_, symObjAddr: 0x8AB8, symBinAddr: 0x10000C118, symSize: 0x48 }
  - { offsetInCU: 0x205E5, offset: 0x205E5, size: 0x8, addend: 0x0, symName: __ZNSt3__122__compressed_pair_elemIPNS_11__tree_nodeINS_12__value_typeIiNS_4pairINS_6vectorIhNS_9allocatorIhEEEES7_EEEEPvEELi0ELb0EEC2B8ue170006IRSC_vEEOT_, symObjAddr: 0x8B00, symBinAddr: 0x10000C160, symSize: 0x24 }
  - { offsetInCU: 0x20627, offset: 0x20627, size: 0x8, addend: 0x0, symName: __ZNSt3__122__compressed_pair_elemINS_22__tree_node_destructorINS_9allocatorINS_11__tree_nodeINS_12__value_typeIiNS_4pairINS_6vectorIhNS2_IhEEEES8_EEEEPvEEEEEELi1ELb0EEC2B8ue170006ISE_vEEOT_, symObjAddr: 0x8B24, symBinAddr: 0x10000C184, symSize: 0x24 }
  - { offsetInCU: 0x20669, offset: 0x20669, size: 0x8, addend: 0x0, symName: __ZNSt3__19allocatorINS_11__tree_nodeINS_12__value_typeIiNS_4pairINS_6vectorIhNS0_IhEEEES6_EEEEPvEEE9constructB8ue170006INS3_IKiS7_EEJRKNS_21piecewise_construct_tENS_5tupleIJRSD_EEENSI_IJEEEEEEvPT_DpOT0_, symObjAddr: 0x8B48, symBinAddr: 0x10000C1A8, symSize: 0x44 }
  - { offsetInCU: 0x206E5, offset: 0x206E5, size: 0x8, addend: 0x0, symName: __ZNSt3__14pairIKiNS0_INS_6vectorIhNS_9allocatorIhEEEES5_EEEC1B8ue170006IJRS1_EJEEENS_21piecewise_construct_tENS_5tupleIJDpT_EEENSB_IJDpT0_EEE, symObjAddr: 0x8B8C, symBinAddr: 0x10000C1EC, symSize: 0x44 }
  - { offsetInCU: 0x2074C, offset: 0x2074C, size: 0x8, addend: 0x0, symName: __ZNSt3__14pairIKiNS0_INS_6vectorIhNS_9allocatorIhEEEES5_EEEC1B8ue170006IJRS1_EJEJLm0EEJEEENS_21piecewise_construct_tERNS_5tupleIJDpT_EEERNSB_IJDpT0_EEENS_15__tuple_indicesIJXspT1_EEEENSK_IJXspT2_EEEE, symObjAddr: 0x8BD0, symBinAddr: 0x10000C230, symSize: 0x3C }
  - { offsetInCU: 0x207D9, offset: 0x207D9, size: 0x8, addend: 0x0, symName: __ZNSt3__14pairIKiNS0_INS_6vectorIhNS_9allocatorIhEEEES5_EEEC2B8ue170006IJRS1_EJEJLm0EEJEEENS_21piecewise_construct_tERNS_5tupleIJDpT_EEERNSB_IJDpT0_EEENS_15__tuple_indicesIJXspT1_EEEENSK_IJXspT2_EEEE, symObjAddr: 0x8C0C, symBinAddr: 0x10000C26C, symSize: 0x4C }
  - { offsetInCU: 0x20866, offset: 0x20866, size: 0x8, addend: 0x0, symName: __ZNSt3__112__tuple_leafILm0ERKiLb0EE3getB8ue170006Ev, symObjAddr: 0x8C7C, symBinAddr: 0x10000C2DC, symSize: 0x18 }
  - { offsetInCU: 0x2088C, offset: 0x2088C, size: 0x8, addend: 0x0, symName: __ZNKSt3__117__compressed_pairIPNS_11__tree_nodeINS_12__value_typeIiNS_4pairINS_6vectorIhNS_9allocatorIhEEEES7_EEEEPvEENS_22__tree_node_destructorINS5_ISB_EEEEE5firstB8ue170006Ev, symObjAddr: 0x8C94, symBinAddr: 0x10000C2F4, symSize: 0x24 }
  - { offsetInCU: 0x208B2, offset: 0x208B2, size: 0x8, addend: 0x0, symName: __ZNKSt3__122__compressed_pair_elemIPNS_11__tree_nodeINS_12__value_typeIiNS_4pairINS_6vectorIhNS_9allocatorIhEEEES7_EEEEPvEELi0ELb0EE5__getB8ue170006Ev, symObjAddr: 0x8CB8, symBinAddr: 0x10000C318, symSize: 0x14 }
  - { offsetInCU: 0x208D8, offset: 0x208D8, size: 0x8, addend: 0x0, symName: __ZNSt3__117__compressed_pairIPNS_11__tree_nodeINS_12__value_typeIiNS_4pairINS_6vectorIhNS_9allocatorIhEEEES7_EEEEPvEENS_22__tree_node_destructorINS5_ISB_EEEEE6secondB8ue170006Ev, symObjAddr: 0x8CCC, symBinAddr: 0x10000C32C, symSize: 0x28 }
  - { offsetInCU: 0x208FE, offset: 0x208FE, size: 0x8, addend: 0x0, symName: __ZNSt3__122__compressed_pair_elemINS_22__tree_node_destructorINS_9allocatorINS_11__tree_nodeINS_12__value_typeIiNS_4pairINS_6vectorIhNS2_IhEEEES8_EEEEPvEEEEEELi1ELb0EE5__getB8ue170006Ev, symObjAddr: 0x8CF4, symBinAddr: 0x10000C354, symSize: 0x14 }
  - { offsetInCU: 0x20924, offset: 0x20924, size: 0x8, addend: 0x0, symName: __ZNSt3__16__treeINS_12__value_typeIiNS_4pairINS_6vectorIhNS_9allocatorIhEEEES6_EEEENS_19__map_value_compareIiS8_NS_4lessIiEELb1EEENS4_IS8_EEE4sizeB8ue170006Ev, symObjAddr: 0x9034, symBinAddr: 0x10000C694, symSize: 0x28 }
  - { offsetInCU: 0x2094A, offset: 0x2094A, size: 0x8, addend: 0x0, symName: __ZNKSt3__116__tree_node_baseIPvE15__parent_unsafeB8ue170006Ev, symObjAddr: 0x905C, symBinAddr: 0x10000C6BC, symSize: 0x18 }
  - { offsetInCU: 0x20970, offset: 0x20970, size: 0x8, addend: 0x0, symName: __ZNSt3__116__tree_node_baseIPvE12__set_parentB8ue170006EPS2_, symObjAddr: 0x9244, symBinAddr: 0x10000C8A4, symSize: 0x20 }
  - { offsetInCU: 0x209A5, offset: 0x209A5, size: 0x8, addend: 0x0, symName: __ZNSt3__117__compressed_pairImNS_19__map_value_compareIiNS_12__value_typeIiNS_4pairINS_6vectorIhNS_9allocatorIhEEEES7_EEEENS_4lessIiEELb1EEEE5firstB8ue170006Ev, symObjAddr: 0x9264, symBinAddr: 0x10000C8C4, symSize: 0x24 }
  - { offsetInCU: 0x209CB, offset: 0x209CB, size: 0x8, addend: 0x0, symName: __ZNSt3__122__compressed_pair_elemImLi0ELb0EE5__getB8ue170006Ev, symObjAddr: 0x9288, symBinAddr: 0x10000C8E8, symSize: 0x14 }
  - { offsetInCU: 0x209F1, offset: 0x209F1, size: 0x8, addend: 0x0, symName: __ZNSt3__117__compressed_pairIPNS_11__tree_nodeINS_12__value_typeIiNS_4pairINS_6vectorIhNS_9allocatorIhEEEES7_EEEEPvEENS_22__tree_node_destructorINS5_ISB_EEEEE5firstB8ue170006Ev, symObjAddr: 0x929C, symBinAddr: 0x10000C8FC, symSize: 0x24 }
  - { offsetInCU: 0x20A17, offset: 0x20A17, size: 0x8, addend: 0x0, symName: __ZNSt3__122__compressed_pair_elemIPNS_11__tree_nodeINS_12__value_typeIiNS_4pairINS_6vectorIhNS_9allocatorIhEEEES7_EEEEPvEELi0ELb0EE5__getB8ue170006Ev, symObjAddr: 0x92C0, symBinAddr: 0x10000C920, symSize: 0x14 }
  - { offsetInCU: 0x20A3D, offset: 0x20A3D, size: 0x8, addend: 0x0, symName: __ZNSt3__110unique_ptrINS_11__tree_nodeINS_12__value_typeIiNS_4pairINS_6vectorIhNS_9allocatorIhEEEES7_EEEEPvEENS_22__tree_node_destructorINS5_ISB_EEEEED2B8ue170006Ev, symObjAddr: 0x92D4, symBinAddr: 0x10000C934, symSize: 0x30 }
  - { offsetInCU: 0x20A67, offset: 0x20A67, size: 0x8, addend: 0x0, symName: __ZNSt3__110unique_ptrINS_11__tree_nodeINS_12__value_typeIiNS_4pairINS_6vectorIhNS_9allocatorIhEEEES7_EEEEPvEENS_22__tree_node_destructorINS5_ISB_EEEEE5resetB8ue170006EPSB_, symObjAddr: 0x9304, symBinAddr: 0x10000C964, symSize: 0x78 }
  - { offsetInCU: 0x20AAB, offset: 0x20AAB, size: 0x8, addend: 0x0, symName: __ZNSt3__122__tree_node_destructorINS_9allocatorINS_11__tree_nodeINS_12__value_typeIiNS_4pairINS_6vectorIhNS1_IhEEEES7_EEEEPvEEEEEclB8ue170006EPSB_, symObjAddr: 0x937C, symBinAddr: 0x10000C9DC, symSize: 0x94 }
  - { offsetInCU: 0x20AE0, offset: 0x20AE0, size: 0x8, addend: 0x0, symName: __ZNSt3__115__tree_iteratorINS_12__value_typeIiNS_4pairINS_6vectorIhNS_9allocatorIhEEEES6_EEEEPNS_11__tree_nodeIS8_PvEElEC2B8ue170006ESC_, symObjAddr: 0x9410, symBinAddr: 0x10000CA70, symSize: 0x20 }
  - { offsetInCU: 0x20B19, offset: 0x20B19, size: 0x8, addend: 0x0, symName: __ZNSt3__14pairINS_15__tree_iteratorINS_12__value_typeIiNS0_INS_6vectorIhNS_9allocatorIhEEEES6_EEEEPNS_11__tree_nodeIS8_PvEElEEbEC2B8ue170006ISD_RbLSA_0EEEOT_OT0_, symObjAddr: 0x9430, symBinAddr: 0x10000CA90, symSize: 0x38 }
  - { offsetInCU: 0x20B77, offset: 0x20B77, size: 0x8, addend: 0x0, symName: __ZNSt3__15tupleIJRKiEEC1B8ue170006INS_4_AndELi0EEES2_, symObjAddr: 0x9468, symBinAddr: 0x10000CAC8, symSize: 0x34 }
  - { offsetInCU: 0x20BBF, offset: 0x20BBF, size: 0x8, addend: 0x0, symName: __ZNSt3__15tupleIJRKiEEC2B8ue170006INS_4_AndELi0EEES2_, symObjAddr: 0x949C, symBinAddr: 0x10000CAFC, symSize: 0x34 }
  - { offsetInCU: 0x20C07, offset: 0x20C07, size: 0x8, addend: 0x0, symName: __ZNSt3__112__tuple_implINS_15__tuple_indicesIJLm0EEEEJRKiEEC1B8ue170006IJLm0EEJS4_EJEJEJS4_EEENS1_IJXspT_EEEENS_13__tuple_typesIJDpT0_EEENS1_IJXspT1_EEEENS8_IJDpT2_EEEDpOT3_, symObjAddr: 0x94D0, symBinAddr: 0x10000CB30, symSize: 0x34 }
  - { offsetInCU: 0x20C98, offset: 0x20C98, size: 0x8, addend: 0x0, symName: __ZNSt3__112__tuple_implINS_15__tuple_indicesIJLm0EEEEJRKiEEC2B8ue170006IJLm0EEJS4_EJEJEJS4_EEENS1_IJXspT_EEEENS_13__tuple_typesIJDpT0_EEENS1_IJXspT1_EEEENS8_IJDpT2_EEEDpOT3_, symObjAddr: 0x9504, symBinAddr: 0x10000CB64, symSize: 0x34 }
  - { offsetInCU: 0x20D29, offset: 0x20D29, size: 0x8, addend: 0x0, symName: __ZNSt3__112__tuple_leafILm0ERKiLb0EEC2B8ue170006IS2_vEEOT_, symObjAddr: 0x9538, symBinAddr: 0x10000CB98, symSize: 0x20 }
  - { offsetInCU: 0x20D6C, offset: 0x20D6C, size: 0x8, addend: 0x0, symName: __ZNSt3__114pointer_traitsIPNS_12__value_typeIiNS_4pairINS_6vectorIhNS_9allocatorIhEEEES6_EEEEE10pointer_toB8ue170006ERS8_, symObjAddr: 0x9558, symBinAddr: 0x10000CBB8, symSize: 0x14 }
  - { offsetInCU: 0x20D8F, offset: 0x20D8F, size: 0x8, addend: 0x0, symName: __ZNKSt3__115__tree_iteratorINS_12__value_typeIiNS_4pairINS_6vectorIhNS_9allocatorIhEEEES6_EEEEPNS_11__tree_nodeIS8_PvEElE8__get_npB8ue170006Ev, symObjAddr: 0x956C, symBinAddr: 0x10000CBCC, symSize: 0x18 }
  - { offsetInCU: 0x20DB5, offset: 0x20DB5, size: 0x8, addend: 0x0, symName: __ZNKSt3__16vectorIhNS_9allocatorIhEEE5beginB8ue170006Ev, symObjAddr: 0x95D4, symBinAddr: 0x10000CC34, symSize: 0x30 }
  - { offsetInCU: 0x20DDD, offset: 0x20DDD, size: 0x8, addend: 0x0, symName: __ZNKSt3__16vectorIhNS_9allocatorIhEEE3endB8ue170006Ev, symObjAddr: 0x9604, symBinAddr: 0x10000CC64, symSize: 0x30 }
  - { offsetInCU: 0x20E05, offset: 0x20E05, size: 0x8, addend: 0x0, symName: __ZNSt3__118__unwrap_iter_implINS_11__wrap_iterIPKhEELb1EE8__unwrapB8ue170006ES4_, symObjAddr: 0x9764, symBinAddr: 0x10000CDC4, symSize: 0x28 }
  - { offsetInCU: 0x20E32, offset: 0x20E32, size: 0x8, addend: 0x0, symName: __ZNSt3__119__to_address_helperINS_11__wrap_iterIPKhEEvE6__callB8ue170006ERKS4_, symObjAddr: 0x97B0, symBinAddr: 0x10000CE10, symSize: 0x30 }
  - { offsetInCU: 0x20E55, offset: 0x20E55, size: 0x8, addend: 0x0, symName: __ZNSt3__114pointer_traitsINS_11__wrap_iterIPKhEEE10to_addressB8ue170006ES4_, symObjAddr: 0x97E0, symBinAddr: 0x10000CE40, symSize: 0x2C }
  - { offsetInCU: 0x20E78, offset: 0x20E78, size: 0x8, addend: 0x0, symName: __ZNKSt3__111__wrap_iterIPKhE4baseB8ue170006Ev, symObjAddr: 0x9820, symBinAddr: 0x10000CE80, symSize: 0x18 }
  - { offsetInCU: 0x20E9E, offset: 0x20E9E, size: 0x8, addend: 0x0, symName: __ZNKSt3__16vectorIhNS_9allocatorIhEEE11__make_iterB8ue170006EPKh, symObjAddr: 0x9838, symBinAddr: 0x10000CE98, symSize: 0x30 }
  - { offsetInCU: 0x20ED3, offset: 0x20ED3, size: 0x8, addend: 0x0, symName: __ZNSt3__111__wrap_iterIPKhEC1B8ue170006ES2_, symObjAddr: 0x9868, symBinAddr: 0x10000CEC8, symSize: 0x34 }
  - { offsetInCU: 0x20F0B, offset: 0x20F0B, size: 0x8, addend: 0x0, symName: __ZNSt3__111__wrap_iterIPKhEC2B8ue170006ES2_, symObjAddr: 0x989C, symBinAddr: 0x10000CEFC, symSize: 0x20 }
  - { offsetInCU: 0x20F43, offset: 0x20F43, size: 0x8, addend: 0x0, symName: __ZNSt3__16vectorIhNS_9allocatorIhEEEC2B8ue170006Ev, symObjAddr: 0x98BC, symBinAddr: 0x10000CF1C, symSize: 0x4C }
  - { offsetInCU: 0x20F6D, offset: 0x20F6D, size: 0x8, addend: 0x0, symName: __ZNSt3__117__compressed_pairIPhNS_9allocatorIhEEEC1B8ue170006IDnNS_18__default_init_tagEEEOT_OT0_, symObjAddr: 0x9908, symBinAddr: 0x10000CF68, symSize: 0x3C }
  - { offsetInCU: 0x20FC5, offset: 0x20FC5, size: 0x8, addend: 0x0, symName: __ZNSt3__117__compressed_pairIPhNS_9allocatorIhEEEC2B8ue170006IDnNS_18__default_init_tagEEEOT_OT0_, symObjAddr: 0x9944, symBinAddr: 0x10000CFA4, symSize: 0x40 }
  - { offsetInCU: 0x2101D, offset: 0x2101D, size: 0x8, addend: 0x0, symName: __ZNSt3__122__compressed_pair_elemINS_9allocatorIhEELi1ELb1EEC2B8ue170006ENS_18__default_init_tagE, symObjAddr: 0x9984, symBinAddr: 0x10000CFE4, symSize: 0x2C }
  - { offsetInCU: 0x21051, offset: 0x21051, size: 0x8, addend: 0x0, symName: __ZNSt3__19allocatorIhEC2B8ue170006Ev, symObjAddr: 0x99B0, symBinAddr: 0x10000D010, symSize: 0x2C }
  - { offsetInCU: 0x2107B, offset: 0x2107B, size: 0x8, addend: 0x0, symName: __ZNSt3__116__non_trivial_ifILb1ENS_9allocatorIhEEEC2B8ue170006Ev, symObjAddr: 0x99DC, symBinAddr: 0x10000D03C, symSize: 0x14 }
  - { offsetInCU: 0x210AA, offset: 0x210AA, size: 0x8, addend: 0x0, symName: __ZNSt3__16vectorIhNS_9allocatorIhEEE22__construct_one_at_endB8ue170006IJhEEEvDpOT_, symObjAddr: 0x99F0, symBinAddr: 0x10000D050, symSize: 0x90 }
  - { offsetInCU: 0x210F9, offset: 0x210F9, size: 0x8, addend: 0x0, symName: __ZNSt3__16vectorIhNS_9allocatorIhEEE21__push_back_slow_pathIhEEvOT_, symObjAddr: 0x9A80, symBinAddr: 0x10000D0E0, symSize: 0xD8 }
  - { offsetInCU: 0x21157, offset: 0x21157, size: 0x8, addend: 0x0, symName: __ZNSt3__116allocator_traitsINS_9allocatorIhEEE9constructB8ue170006IhJhEvEEvRS2_PT_DpOT0_, symObjAddr: 0x9B58, symBinAddr: 0x10000D1B8, symSize: 0x34 }
  - { offsetInCU: 0x211AE, offset: 0x211AE, size: 0x8, addend: 0x0, symName: __ZNSt3__19allocatorIhE9constructB8ue170006IhJhEEEvPT_DpOT0_, symObjAddr: 0x9B8C, symBinAddr: 0x10000D1EC, symSize: 0x28 }
  - { offsetInCU: 0x21204, offset: 0x21204, size: 0x8, addend: 0x0, symName: __ZNKSt3__16vectorIhNS_9allocatorIhEEE11__recommendB8ue170006Em, symObjAddr: 0x9BB4, symBinAddr: 0x10000D214, symSize: 0xB4 }
  - { offsetInCU: 0x21259, offset: 0x21259, size: 0x8, addend: 0x0, symName: __ZNSt3__114__split_bufferIhRNS_9allocatorIhEEEC1EmmS3_, symObjAddr: 0x9C68, symBinAddr: 0x10000D2C8, symSize: 0x44 }
  - { offsetInCU: 0x212AF, offset: 0x212AF, size: 0x8, addend: 0x0, symName: __ZNSt3__114__split_bufferIhRNS_9allocatorIhEEED1Ev, symObjAddr: 0x9DBC, symBinAddr: 0x10000D41C, symSize: 0x2C }
  - { offsetInCU: 0x212DB, offset: 0x212DB, size: 0x8, addend: 0x0, symName: __ZNSt3__114__split_bufferIhRNS_9allocatorIhEEEC2EmmS3_, symObjAddr: 0x9DE8, symBinAddr: 0x10000D448, symSize: 0xD4 }
  - { offsetInCU: 0x2134E, offset: 0x2134E, size: 0x8, addend: 0x0, symName: __ZNSt3__117__compressed_pairIPhRNS_9allocatorIhEEEC1B8ue170006IDnS4_EEOT_OT0_, symObjAddr: 0x9EBC, symBinAddr: 0x10000D51C, symSize: 0x3C }
  - { offsetInCU: 0x213A6, offset: 0x213A6, size: 0x8, addend: 0x0, symName: __ZNSt3__114__split_bufferIhRNS_9allocatorIhEEE7__allocB8ue170006Ev, symObjAddr: 0x9EF8, symBinAddr: 0x10000D558, symSize: 0x28 }
  - { offsetInCU: 0x213CC, offset: 0x213CC, size: 0x8, addend: 0x0, symName: __ZNSt3__114__split_bufferIhRNS_9allocatorIhEEE9__end_capB8ue170006Ev, symObjAddr: 0x9F20, symBinAddr: 0x10000D580, symSize: 0x28 }
  - { offsetInCU: 0x213F2, offset: 0x213F2, size: 0x8, addend: 0x0, symName: __ZNSt3__117__compressed_pairIPhRNS_9allocatorIhEEEC2B8ue170006IDnS4_EEOT_OT0_, symObjAddr: 0x9F48, symBinAddr: 0x10000D5A8, symSize: 0x48 }
  - { offsetInCU: 0x2144A, offset: 0x2144A, size: 0x8, addend: 0x0, symName: __ZNSt3__122__compressed_pair_elemIRNS_9allocatorIhEELi1ELb0EEC2B8ue170006IS3_vEEOT_, symObjAddr: 0x9F90, symBinAddr: 0x10000D5F0, symSize: 0x20 }
  - { offsetInCU: 0x2148C, offset: 0x2148C, size: 0x8, addend: 0x0, symName: __ZNSt3__117__compressed_pairIPhRNS_9allocatorIhEEE6secondB8ue170006Ev, symObjAddr: 0x9FB0, symBinAddr: 0x10000D610, symSize: 0x28 }
  - { offsetInCU: 0x214B2, offset: 0x214B2, size: 0x8, addend: 0x0, symName: __ZNSt3__122__compressed_pair_elemIRNS_9allocatorIhEELi1ELb0EE5__getB8ue170006Ev, symObjAddr: 0x9FD8, symBinAddr: 0x10000D638, symSize: 0x18 }
  - { offsetInCU: 0x214D8, offset: 0x214D8, size: 0x8, addend: 0x0, symName: __ZNSt3__117__compressed_pairIPhRNS_9allocatorIhEEE5firstB8ue170006Ev, symObjAddr: 0x9FF0, symBinAddr: 0x10000D650, symSize: 0x24 }
  - { offsetInCU: 0x214FE, offset: 0x214FE, size: 0x8, addend: 0x0, symName: __ZNSt3__116reverse_iteratorIPhEC1B8ue170006ES1_, symObjAddr: 0xA08C, symBinAddr: 0x10000D6EC, symSize: 0x34 }
  - { offsetInCU: 0x21536, offset: 0x21536, size: 0x8, addend: 0x0, symName: __ZNKSt3__116reverse_iteratorIPhE4baseB8ue170006Ev, symObjAddr: 0xA0C0, symBinAddr: 0x10000D720, symSize: 0x18 }
  - { offsetInCU: 0x2157F, offset: 0x2157F, size: 0x8, addend: 0x0, symName: __ZNKSt3__111__move_loopINS_17_ClassicAlgPolicyEEclB8ue170006INS_16reverse_iteratorIPhEES6_S6_EENS_4pairIT_T1_EES8_T0_S9_, symObjAddr: 0xA404, symBinAddr: 0x10000DA64, symSize: 0xA0 }
  - { offsetInCU: 0x215EA, offset: 0x215EA, size: 0x8, addend: 0x0, symName: __ZNSt3__18_IterOpsINS_17_ClassicAlgPolicyEE11__iter_moveB8ue170006IRNS_16reverse_iteratorIPhEEEENS_9enable_ifIXsr12is_referenceIDTdeclsr3stdE7declvalIRT_EEEEE5valueEDTclsr3stdE4movedeclsr3stdE7declvalISA_EEEEE4typeEOS9_, symObjAddr: 0xA638, symBinAddr: 0x10000DC98, symSize: 0x28 }
  - { offsetInCU: 0x21616, offset: 0x21616, size: 0x8, addend: 0x0, symName: __ZNKSt3__116reverse_iteratorIPhEdeB8ue170006Ev, symObjAddr: 0xA660, symBinAddr: 0x10000DCC0, symSize: 0x28 }
  - { offsetInCU: 0x2164A, offset: 0x2164A, size: 0x8, addend: 0x0, symName: __ZNSt3__116reverse_iteratorIPhEppB8ue170006Ev, symObjAddr: 0xA688, symBinAddr: 0x10000DCE8, symSize: 0x20 }
  - { offsetInCU: 0x21670, offset: 0x21670, size: 0x8, addend: 0x0, symName: __ZNSt3__18_IterOpsINS_17_ClassicAlgPolicyEE25__validate_iter_referenceB8ue170006IRNS_16reverse_iteratorIPhEEEEvv, symObjAddr: 0xA6A8, symBinAddr: 0x10000DD08, symSize: 0x4 }
  - { offsetInCU: 0x2168E, offset: 0x2168E, size: 0x8, addend: 0x0, symName: __ZNSt3__118__unwrap_iter_implINS_16reverse_iteratorIPhEELb0EE8__unwrapB8ue170006ES3_, symObjAddr: 0xA6AC, symBinAddr: 0x10000DD0C, symSize: 0x24 }
  - { offsetInCU: 0x216B6, offset: 0x216B6, size: 0x8, addend: 0x0, symName: __ZNSt3__14pairINS_16reverse_iteratorIPhEES3_EC1B8ue170006IS3_S3_LPv0EEEOT_OT0_, symObjAddr: 0xA6D0, symBinAddr: 0x10000DD30, symSize: 0x3C }
  - { offsetInCU: 0x21714, offset: 0x21714, size: 0x8, addend: 0x0, symName: __ZNSt3__14pairINS_16reverse_iteratorIPhEES3_EC2B8ue170006IS3_S3_LPv0EEEOT_OT0_, symObjAddr: 0xA70C, symBinAddr: 0x10000DD6C, symSize: 0x34 }
  - { offsetInCU: 0x21772, offset: 0x21772, size: 0x8, addend: 0x0, symName: __ZNSt3__118__unwrap_iter_implINS_16reverse_iteratorIPhEELb0EE8__rewrapB8ue170006ES3_S3_, symObjAddr: 0xA740, symBinAddr: 0x10000DDA0, symSize: 0x2C }
  - { offsetInCU: 0x2179F, offset: 0x2179F, size: 0x8, addend: 0x0, symName: __ZNSt3__116reverse_iteratorIPhEC2B8ue170006ES1_, symObjAddr: 0xA76C, symBinAddr: 0x10000DDCC, symSize: 0x28 }
  - { offsetInCU: 0x217D7, offset: 0x217D7, size: 0x8, addend: 0x0, symName: __ZNSt3__114__split_bufferIhRNS_9allocatorIhEEED2Ev, symObjAddr: 0xA794, symBinAddr: 0x10000DDF4, symSize: 0x8C }
  - { offsetInCU: 0x21803, offset: 0x21803, size: 0x8, addend: 0x0, symName: __ZNSt3__114__split_bufferIhRNS_9allocatorIhEEE5clearB8ue170006Ev, symObjAddr: 0xA820, symBinAddr: 0x10000DE80, symSize: 0x28 }
  - { offsetInCU: 0x21829, offset: 0x21829, size: 0x8, addend: 0x0, symName: __ZNKSt3__114__split_bufferIhRNS_9allocatorIhEEE8capacityB8ue170006Ev, symObjAddr: 0xA848, symBinAddr: 0x10000DEA8, symSize: 0x38 }
  - { offsetInCU: 0x2184F, offset: 0x2184F, size: 0x8, addend: 0x0, symName: __ZNSt3__114__split_bufferIhRNS_9allocatorIhEEE17__destruct_at_endB8ue170006EPh, symObjAddr: 0xA880, symBinAddr: 0x10000DEE0, symSize: 0x2C }
  - { offsetInCU: 0x21883, offset: 0x21883, size: 0x8, addend: 0x0, symName: __ZNSt3__114__split_bufferIhRNS_9allocatorIhEEE17__destruct_at_endB8ue170006EPhNS_17integral_constantIbLb0EEE, symObjAddr: 0xA8AC, symBinAddr: 0x10000DF0C, symSize: 0x80 }
  - { offsetInCU: 0x218C3, offset: 0x218C3, size: 0x8, addend: 0x0, symName: __ZNKSt3__114__split_bufferIhRNS_9allocatorIhEEE9__end_capB8ue170006Ev, symObjAddr: 0xA92C, symBinAddr: 0x10000DF8C, symSize: 0x28 }
  - { offsetInCU: 0x218E9, offset: 0x218E9, size: 0x8, addend: 0x0, symName: __ZNKSt3__117__compressed_pairIPhRNS_9allocatorIhEEE5firstB8ue170006Ev, symObjAddr: 0xA954, symBinAddr: 0x10000DFB4, symSize: 0x24 }
  - { offsetInCU: 0x2190F, offset: 0x2190F, size: 0x8, addend: 0x0, symName: __ZNSt3__13mapINS_4pairINS_6vectorIhNS_9allocatorIhEEEES5_EEiNS_4lessIS6_EENS3_INS1_IKS6_iEEEEEC2B8ue170006Ev, symObjAddr: 0xA978, symBinAddr: 0x10000DFD8, symSize: 0x40 }
  - { offsetInCU: 0x21939, offset: 0x21939, size: 0x8, addend: 0x0, symName: __ZNSt3__119__map_value_compareINS_4pairINS_6vectorIhNS_9allocatorIhEEEES5_EENS_12__value_typeIS6_iEENS_4lessIS6_EELb1EEC1B8ue170006ESA_, symObjAddr: 0xA9B8, symBinAddr: 0x10000E018, symSize: 0x2C }
  - { offsetInCU: 0x21972, offset: 0x21972, size: 0x8, addend: 0x0, symName: __ZNSt3__16__treeINS_12__value_typeINS_4pairINS_6vectorIhNS_9allocatorIhEEEES6_EEiEENS_19__map_value_compareIS7_S8_NS_4lessIS7_EELb1EEENS4_IS8_EEEC1ERKSC_, symObjAddr: 0xA9E4, symBinAddr: 0x10000E044, symSize: 0x34 }
  - { offsetInCU: 0x219AD, offset: 0x219AD, size: 0x8, addend: 0x0, symName: __ZNSt3__119__map_value_compareINS_4pairINS_6vectorIhNS_9allocatorIhEEEES5_EENS_12__value_typeIS6_iEENS_4lessIS6_EELb1EEC2B8ue170006ESA_, symObjAddr: 0xAA18, symBinAddr: 0x10000E078, symSize: 0x14 }
  - { offsetInCU: 0x219E6, offset: 0x219E6, size: 0x8, addend: 0x0, symName: __ZNSt3__16__treeINS_12__value_typeINS_4pairINS_6vectorIhNS_9allocatorIhEEEES6_EEiEENS_19__map_value_compareIS7_S8_NS_4lessIS7_EELb1EEENS4_IS8_EEEC2ERKSC_, symObjAddr: 0xAA2C, symBinAddr: 0x10000E08C, symSize: 0x7C }
  - { offsetInCU: 0x21A21, offset: 0x21A21, size: 0x8, addend: 0x0, symName: __ZNSt3__117__compressed_pairINS_15__tree_end_nodeIPNS_16__tree_node_baseIPvEEEENS_9allocatorINS_11__tree_nodeINS_12__value_typeINS_4pairINS_6vectorIhNS7_IhEEEESD_EEiEES3_EEEEEC1B8ue170006ILb1EvEEv, symObjAddr: 0xAAA8, symBinAddr: 0x10000E108, symSize: 0x2C }
  - { offsetInCU: 0x21A56, offset: 0x21A56, size: 0x8, addend: 0x0, symName: __ZNSt3__117__compressed_pairImNS_19__map_value_compareINS_4pairINS_6vectorIhNS_9allocatorIhEEEES6_EENS_12__value_typeIS7_iEENS_4lessIS7_EELb1EEEEC1B8ue170006IiRKSC_EEOT_OT0_, symObjAddr: 0xAAD4, symBinAddr: 0x10000E134, symSize: 0x3C }
  - { offsetInCU: 0x21AAE, offset: 0x21AAE, size: 0x8, addend: 0x0, symName: __ZNSt3__16__treeINS_12__value_typeINS_4pairINS_6vectorIhNS_9allocatorIhEEEES6_EEiEENS_19__map_value_compareIS7_S8_NS_4lessIS7_EELb1EEENS4_IS8_EEE10__end_nodeB8ue170006Ev, symObjAddr: 0xAB10, symBinAddr: 0x10000E170, symSize: 0x2C }
  - { offsetInCU: 0x21AD4, offset: 0x21AD4, size: 0x8, addend: 0x0, symName: __ZNSt3__16__treeINS_12__value_typeINS_4pairINS_6vectorIhNS_9allocatorIhEEEES6_EEiEENS_19__map_value_compareIS7_S8_NS_4lessIS7_EELb1EEENS4_IS8_EEE12__begin_nodeB8ue170006Ev, symObjAddr: 0xAB3C, symBinAddr: 0x10000E19C, symSize: 0x14 }
  - { offsetInCU: 0x21AFA, offset: 0x21AFA, size: 0x8, addend: 0x0, symName: __ZNSt3__117__compressed_pairINS_15__tree_end_nodeIPNS_16__tree_node_baseIPvEEEENS_9allocatorINS_11__tree_nodeINS_12__value_typeINS_4pairINS_6vectorIhNS7_IhEEEESD_EEiEES3_EEEEEC2B8ue170006ILb1EvEEv, symObjAddr: 0xAB50, symBinAddr: 0x10000E1B0, symSize: 0x34 }
  - { offsetInCU: 0x21B2F, offset: 0x21B2F, size: 0x8, addend: 0x0, symName: __ZNSt3__122__compressed_pair_elemINS_9allocatorINS_11__tree_nodeINS_12__value_typeINS_4pairINS_6vectorIhNS1_IhEEEES7_EEiEEPvEEEELi1ELb1EEC2B8ue170006ENS_16__value_init_tagE, symObjAddr: 0xAB84, symBinAddr: 0x10000E1E4, symSize: 0x2C }
  - { offsetInCU: 0x21B63, offset: 0x21B63, size: 0x8, addend: 0x0, symName: __ZNSt3__19allocatorINS_11__tree_nodeINS_12__value_typeINS_4pairINS_6vectorIhNS0_IhEEEES6_EEiEEPvEEEC2B8ue170006Ev, symObjAddr: 0xABB0, symBinAddr: 0x10000E210, symSize: 0x2C }
  - { offsetInCU: 0x21B8D, offset: 0x21B8D, size: 0x8, addend: 0x0, symName: __ZNSt3__116__non_trivial_ifILb1ENS_9allocatorINS_11__tree_nodeINS_12__value_typeINS_4pairINS_6vectorIhNS1_IhEEEES7_EEiEEPvEEEEEC2B8ue170006Ev, symObjAddr: 0xABDC, symBinAddr: 0x10000E23C, symSize: 0x14 }
  - { offsetInCU: 0x21BB7, offset: 0x21BB7, size: 0x8, addend: 0x0, symName: __ZNSt3__117__compressed_pairImNS_19__map_value_compareINS_4pairINS_6vectorIhNS_9allocatorIhEEEES6_EENS_12__value_typeIS7_iEENS_4lessIS7_EELb1EEEEC2B8ue170006IiRKSC_EEOT_OT0_, symObjAddr: 0xABF0, symBinAddr: 0x10000E250, symSize: 0x44 }
  - { offsetInCU: 0x21C0F, offset: 0x21C0F, size: 0x8, addend: 0x0, symName: __ZNSt3__122__compressed_pair_elemINS_19__map_value_compareINS_4pairINS_6vectorIhNS_9allocatorIhEEEES6_EENS_12__value_typeIS7_iEENS_4lessIS7_EELb1EEELi1ELb1EEC2B8ue170006IRKSC_vEEOT_, symObjAddr: 0xAC34, symBinAddr: 0x10000E294, symSize: 0x18 }
  - { offsetInCU: 0x21C51, offset: 0x21C51, size: 0x8, addend: 0x0, symName: __ZNSt3__117__compressed_pairINS_15__tree_end_nodeIPNS_16__tree_node_baseIPvEEEENS_9allocatorINS_11__tree_nodeINS_12__value_typeINS_4pairINS_6vectorIhNS7_IhEEEESD_EEiEES3_EEEEE5firstB8ue170006Ev, symObjAddr: 0xAC4C, symBinAddr: 0x10000E2AC, symSize: 0x24 }
  - { offsetInCU: 0x21C77, offset: 0x21C77, size: 0x8, addend: 0x0, symName: __ZNSt3__13mapINS_4pairINS_6vectorIhNS_9allocatorIhEEEES5_EEiNS_4lessIS6_EENS3_INS1_IKS6_iEEEEED2B8ue170006Ev, symObjAddr: 0xAC70, symBinAddr: 0x10000E2D0, symSize: 0x2C }
  - { offsetInCU: 0x21CA1, offset: 0x21CA1, size: 0x8, addend: 0x0, symName: __ZNSt3__16__treeINS_12__value_typeINS_4pairINS_6vectorIhNS_9allocatorIhEEEES6_EEiEENS_19__map_value_compareIS7_S8_NS_4lessIS7_EELb1EEENS4_IS8_EEED1Ev, symObjAddr: 0xAC9C, symBinAddr: 0x10000E2FC, symSize: 0x2C }
  - { offsetInCU: 0x21CCD, offset: 0x21CCD, size: 0x8, addend: 0x0, symName: __ZNSt3__16__treeINS_12__value_typeINS_4pairINS_6vectorIhNS_9allocatorIhEEEES6_EEiEENS_19__map_value_compareIS7_S8_NS_4lessIS7_EELb1EEENS4_IS8_EEED2Ev, symObjAddr: 0xACC8, symBinAddr: 0x10000E328, symSize: 0x38 }
  - { offsetInCU: 0x21CF9, offset: 0x21CF9, size: 0x8, addend: 0x0, symName: __ZNSt3__16__treeINS_12__value_typeINS_4pairINS_6vectorIhNS_9allocatorIhEEEES6_EEiEENS_19__map_value_compareIS7_S8_NS_4lessIS7_EELb1EEENS4_IS8_EEE7destroyEPNS_11__tree_nodeIS8_PvEE, symObjAddr: 0xAD00, symBinAddr: 0x10000E360, symSize: 0xAC }
  - { offsetInCU: 0x21D45, offset: 0x21D45, size: 0x8, addend: 0x0, symName: __ZNKSt3__16__treeINS_12__value_typeINS_4pairINS_6vectorIhNS_9allocatorIhEEEES6_EEiEENS_19__map_value_compareIS7_S8_NS_4lessIS7_EELb1EEENS4_IS8_EEE6__rootB8ue170006Ev, symObjAddr: 0xADAC, symBinAddr: 0x10000E40C, symSize: 0x28 }
  - { offsetInCU: 0x21D6B, offset: 0x21D6B, size: 0x8, addend: 0x0, symName: __ZNSt3__16__treeINS_12__value_typeINS_4pairINS_6vectorIhNS_9allocatorIhEEEES6_EEiEENS_19__map_value_compareIS7_S8_NS_4lessIS7_EELb1EEENS4_IS8_EEE12__node_allocB8ue170006Ev, symObjAddr: 0xADD4, symBinAddr: 0x10000E434, symSize: 0x28 }
  - { offsetInCU: 0x21D91, offset: 0x21D91, size: 0x8, addend: 0x0, symName: __ZNSt3__116allocator_traitsINS_9allocatorINS_11__tree_nodeINS_12__value_typeINS_4pairINS_6vectorIhNS1_IhEEEES7_EEiEEPvEEEEE7destroyB8ue170006INS4_IKS8_iEEvvEEvRSC_PT_, symObjAddr: 0xADFC, symBinAddr: 0x10000E45C, symSize: 0x28 }
  - { offsetInCU: 0x21DCB, offset: 0x21DCB, size: 0x8, addend: 0x0, symName: __ZNSt3__122__tree_key_value_typesINS_12__value_typeINS_4pairINS_6vectorIhNS_9allocatorIhEEEES6_EEiEEE9__get_ptrB8ue170006ERS8_, symObjAddr: 0xAE24, symBinAddr: 0x10000E484, symSize: 0x24 }
  - { offsetInCU: 0x21DEF, offset: 0x21DEF, size: 0x8, addend: 0x0, symName: __ZNSt3__116allocator_traitsINS_9allocatorINS_11__tree_nodeINS_12__value_typeINS_4pairINS_6vectorIhNS1_IhEEEES7_EEiEEPvEEEEE10deallocateB8ue170006ERSC_PSB_m, symObjAddr: 0xAE48, symBinAddr: 0x10000E4A8, symSize: 0x34 }
  - { offsetInCU: 0x21E31, offset: 0x21E31, size: 0x8, addend: 0x0, symName: __ZNSt3__117__compressed_pairINS_15__tree_end_nodeIPNS_16__tree_node_baseIPvEEEENS_9allocatorINS_11__tree_nodeINS_12__value_typeINS_4pairINS_6vectorIhNS7_IhEEEESD_EEiEES3_EEEEE6secondB8ue170006Ev, symObjAddr: 0xAE7C, symBinAddr: 0x10000E4DC, symSize: 0x24 }
  - { offsetInCU: 0x21E57, offset: 0x21E57, size: 0x8, addend: 0x0, symName: __ZNSt3__122__compressed_pair_elemINS_9allocatorINS_11__tree_nodeINS_12__value_typeINS_4pairINS_6vectorIhNS1_IhEEEES7_EEiEEPvEEEELi1ELb1EE5__getB8ue170006Ev, symObjAddr: 0xAEA0, symBinAddr: 0x10000E500, symSize: 0x14 }
  - { offsetInCU: 0x21E7D, offset: 0x21E7D, size: 0x8, addend: 0x0, symName: __ZNSt3__14pairIKNS0_INS_6vectorIhNS_9allocatorIhEEEES4_EEiED1Ev, symObjAddr: 0xAEB4, symBinAddr: 0x10000E514, symSize: 0x2C }
  - { offsetInCU: 0x21EA9, offset: 0x21EA9, size: 0x8, addend: 0x0, symName: __ZNSt3__14pairIKNS0_INS_6vectorIhNS_9allocatorIhEEEES4_EEiED2Ev, symObjAddr: 0xAEE0, symBinAddr: 0x10000E540, symSize: 0x2C }
  - { offsetInCU: 0x21ED5, offset: 0x21ED5, size: 0x8, addend: 0x0, symName: __ZNSt3__112__value_typeINS_4pairINS_6vectorIhNS_9allocatorIhEEEES5_EEiE11__get_valueB8ue170006Ev, symObjAddr: 0xAF0C, symBinAddr: 0x10000E56C, symSize: 0x14 }
  - { offsetInCU: 0x21EFB, offset: 0x21EFB, size: 0x8, addend: 0x0, symName: __ZNSt3__19allocatorINS_11__tree_nodeINS_12__value_typeINS_4pairINS_6vectorIhNS0_IhEEEES6_EEiEEPvEEE10deallocateB8ue170006EPSA_m, symObjAddr: 0xAF20, symBinAddr: 0x10000E580, symSize: 0x44 }
  - { offsetInCU: 0x21F3D, offset: 0x21F3D, size: 0x8, addend: 0x0, symName: __ZNKSt3__16__treeINS_12__value_typeINS_4pairINS_6vectorIhNS_9allocatorIhEEEES6_EEiEENS_19__map_value_compareIS7_S8_NS_4lessIS7_EELb1EEENS4_IS8_EEE10__end_nodeB8ue170006Ev, symObjAddr: 0xAF64, symBinAddr: 0x10000E5C4, symSize: 0x2C }
  - { offsetInCU: 0x21F63, offset: 0x21F63, size: 0x8, addend: 0x0, symName: __ZNKSt3__117__compressed_pairINS_15__tree_end_nodeIPNS_16__tree_node_baseIPvEEEENS_9allocatorINS_11__tree_nodeINS_12__value_typeINS_4pairINS_6vectorIhNS7_IhEEEESD_EEiEES3_EEEEE5firstB8ue170006Ev, symObjAddr: 0xAF90, symBinAddr: 0x10000E5F0, symSize: 0x24 }
  - { offsetInCU: 0x21F89, offset: 0x21F89, size: 0x8, addend: 0x0, symName: __ZNSt3__16vectorINS_4pairINS0_IhNS_9allocatorIhEEEES4_EENS2_IS5_EEEC2B8ue170006Ev, symObjAddr: 0xAFB4, symBinAddr: 0x10000E614, symSize: 0x4C }
  - { offsetInCU: 0x21FB3, offset: 0x21FB3, size: 0x8, addend: 0x0, symName: __ZNSt3__117__compressed_pairIPNS_4pairINS_6vectorIhNS_9allocatorIhEEEES5_EENS3_IS6_EEEC1B8ue170006IDnNS_18__default_init_tagEEEOT_OT0_, symObjAddr: 0xB000, symBinAddr: 0x10000E660, symSize: 0x3C }
  - { offsetInCU: 0x2200B, offset: 0x2200B, size: 0x8, addend: 0x0, symName: __ZNSt3__117__compressed_pairIPNS_4pairINS_6vectorIhNS_9allocatorIhEEEES5_EENS3_IS6_EEEC2B8ue170006IDnNS_18__default_init_tagEEEOT_OT0_, symObjAddr: 0xB03C, symBinAddr: 0x10000E69C, symSize: 0x40 }
  - { offsetInCU: 0x22063, offset: 0x22063, size: 0x8, addend: 0x0, symName: __ZNSt3__122__compressed_pair_elemIPNS_4pairINS_6vectorIhNS_9allocatorIhEEEES5_EELi0ELb0EEC2B8ue170006IDnvEEOT_, symObjAddr: 0xB07C, symBinAddr: 0x10000E6DC, symSize: 0x1C }
  - { offsetInCU: 0x220A5, offset: 0x220A5, size: 0x8, addend: 0x0, symName: __ZNSt3__122__compressed_pair_elemINS_9allocatorINS_4pairINS_6vectorIhNS1_IhEEEES5_EEEELi1ELb1EEC2B8ue170006ENS_18__default_init_tagE, symObjAddr: 0xB098, symBinAddr: 0x10000E6F8, symSize: 0x2C }
  - { offsetInCU: 0x220D9, offset: 0x220D9, size: 0x8, addend: 0x0, symName: __ZNSt3__19allocatorINS_4pairINS_6vectorIhNS0_IhEEEES4_EEEC2B8ue170006Ev, symObjAddr: 0xB0C4, symBinAddr: 0x10000E724, symSize: 0x2C }
  - { offsetInCU: 0x22103, offset: 0x22103, size: 0x8, addend: 0x0, symName: __ZNSt3__116__non_trivial_ifILb1ENS_9allocatorINS_4pairINS_6vectorIhNS1_IhEEEES5_EEEEEC2B8ue170006Ev, symObjAddr: 0xB0F0, symBinAddr: 0x10000E750, symSize: 0x14 }
  - { offsetInCU: 0x2212D, offset: 0x2212D, size: 0x8, addend: 0x0, symName: __ZNKSt3__16vectorINS_4pairINS0_IhNS_9allocatorIhEEEES4_EENS2_IS5_EEE11__make_iterB8ue170006EPKS5_, symObjAddr: 0xB104, symBinAddr: 0x10000E764, symSize: 0x30 }
  - { offsetInCU: 0x22162, offset: 0x22162, size: 0x8, addend: 0x0, symName: __ZNSt3__111__wrap_iterIPKNS_4pairINS_6vectorIhNS_9allocatorIhEEEES5_EEEC1B8ue170006ES8_, symObjAddr: 0xB134, symBinAddr: 0x10000E794, symSize: 0x34 }
  - { offsetInCU: 0x2219A, offset: 0x2219A, size: 0x8, addend: 0x0, symName: __ZNSt3__111__wrap_iterIPKNS_4pairINS_6vectorIhNS_9allocatorIhEEEES5_EEEC2B8ue170006ES8_, symObjAddr: 0xB168, symBinAddr: 0x10000E7C8, symSize: 0x20 }
  - { offsetInCU: 0x221D2, offset: 0x221D2, size: 0x8, addend: 0x0, symName: __ZNSt3__16__treeINS_12__value_typeINS_4pairINS_6vectorIhNS_9allocatorIhEEEES6_EEiEENS_19__map_value_compareIS7_S8_NS_4lessIS7_EELb1EEENS4_IS8_EEE25__emplace_unique_key_argsIS7_JRKNS_21piecewise_construct_tENS_5tupleIJRKS7_EEENSJ_IJEEEEEENS2_INS_15__tree_iteratorIS8_PNS_11__tree_nodeIS8_PvEElEEbEERKT_DpOT0_, symObjAddr: 0xB188, symBinAddr: 0x10000E7E8, symSize: 0x100 }
  - { offsetInCU: 0x222A8, offset: 0x222A8, size: 0x8, addend: 0x0, symName: __ZNKSt3__115__tree_iteratorINS_12__value_typeINS_4pairINS_6vectorIhNS_9allocatorIhEEEES6_EEiEEPNS_11__tree_nodeIS8_PvEElEptB8ue170006Ev, symObjAddr: 0xB2B4, symBinAddr: 0x10000E914, symSize: 0x2C }
  - { offsetInCU: 0x222CE, offset: 0x222CE, size: 0x8, addend: 0x0, symName: __ZNSt3__16__treeINS_12__value_typeINS_4pairINS_6vectorIhNS_9allocatorIhEEEES6_EEiEENS_19__map_value_compareIS7_S8_NS_4lessIS7_EELb1EEENS4_IS8_EEE12__find_equalIS7_EERPNS_16__tree_node_baseIPvEERPNS_15__tree_end_nodeISJ_EERKT_, symObjAddr: 0xB2E0, symBinAddr: 0x10000E940, symSize: 0x184 }
  - { offsetInCU: 0x2233B, offset: 0x2233B, size: 0x8, addend: 0x0, symName: __ZNSt3__16__treeINS_12__value_typeINS_4pairINS_6vectorIhNS_9allocatorIhEEEES6_EEiEENS_19__map_value_compareIS7_S8_NS_4lessIS7_EELb1EEENS4_IS8_EEE16__construct_nodeIJRKNS_21piecewise_construct_tENS_5tupleIJRKS7_EEENSJ_IJEEEEEENS_10unique_ptrINS_11__tree_nodeIS8_PvEENS_22__tree_node_destructorINS4_ISR_EEEEEEDpOT_, symObjAddr: 0xB464, symBinAddr: 0x10000EAC4, symSize: 0x120 }
  - { offsetInCU: 0x223C4, offset: 0x223C4, size: 0x8, addend: 0x0, symName: __ZNSt3__16__treeINS_12__value_typeINS_4pairINS_6vectorIhNS_9allocatorIhEEEES6_EEiEENS_19__map_value_compareIS7_S8_NS_4lessIS7_EELb1EEENS4_IS8_EEE16__insert_node_atEPNS_15__tree_end_nodeIPNS_16__tree_node_baseIPvEEEERSJ_SJ_, symObjAddr: 0xB584, symBinAddr: 0x10000EBE4, symSize: 0xCC }
  - { offsetInCU: 0x22419, offset: 0x22419, size: 0x8, addend: 0x0, symName: __ZNKSt3__110unique_ptrINS_11__tree_nodeINS_12__value_typeINS_4pairINS_6vectorIhNS_9allocatorIhEEEES7_EEiEEPvEENS_22__tree_node_destructorINS5_ISB_EEEEE3getB8ue170006Ev, symObjAddr: 0xB650, symBinAddr: 0x10000ECB0, symSize: 0x28 }
  - { offsetInCU: 0x2243F, offset: 0x2243F, size: 0x8, addend: 0x0, symName: __ZNSt3__110unique_ptrINS_11__tree_nodeINS_12__value_typeINS_4pairINS_6vectorIhNS_9allocatorIhEEEES7_EEiEEPvEENS_22__tree_node_destructorINS5_ISB_EEEEE7releaseB8ue170006Ev, symObjAddr: 0xB678, symBinAddr: 0x10000ECD8, symSize: 0x44 }
  - { offsetInCU: 0x22474, offset: 0x22474, size: 0x8, addend: 0x0, symName: __ZNSt3__110unique_ptrINS_11__tree_nodeINS_12__value_typeINS_4pairINS_6vectorIhNS_9allocatorIhEEEES7_EEiEEPvEENS_22__tree_node_destructorINS5_ISB_EEEEED1B8ue170006Ev, symObjAddr: 0xB6BC, symBinAddr: 0x10000ED1C, symSize: 0x2C }
  - { offsetInCU: 0x2249E, offset: 0x2249E, size: 0x8, addend: 0x0, symName: __ZNSt3__115__tree_iteratorINS_12__value_typeINS_4pairINS_6vectorIhNS_9allocatorIhEEEES6_EEiEEPNS_11__tree_nodeIS8_PvEElEC1B8ue170006ESC_, symObjAddr: 0xB6E8, symBinAddr: 0x10000ED48, symSize: 0x34 }
  - { offsetInCU: 0x224DC, offset: 0x224DC, size: 0x8, addend: 0x0, symName: __ZNSt3__14pairINS_15__tree_iteratorINS_12__value_typeINS0_INS_6vectorIhNS_9allocatorIhEEEES6_EEiEEPNS_11__tree_nodeIS8_PvEElEEbEC1B8ue170006ISD_RbLSA_0EEEOT_OT0_, symObjAddr: 0xB71C, symBinAddr: 0x10000ED7C, symSize: 0x3C }
  - { offsetInCU: 0x2253A, offset: 0x2253A, size: 0x8, addend: 0x0, symName: __ZNKSt3__16__treeINS_12__value_typeINS_4pairINS_6vectorIhNS_9allocatorIhEEEES6_EEiEENS_19__map_value_compareIS7_S8_NS_4lessIS7_EELb1EEENS4_IS8_EEE10__root_ptrB8ue170006Ev, symObjAddr: 0xB758, symBinAddr: 0x10000EDB8, symSize: 0x24 }
  - { offsetInCU: 0x22560, offset: 0x22560, size: 0x8, addend: 0x0, symName: __ZNSt3__16__treeINS_12__value_typeINS_4pairINS_6vectorIhNS_9allocatorIhEEEES6_EEiEENS_19__map_value_compareIS7_S8_NS_4lessIS7_EELb1EEENS4_IS8_EEE10value_compB8ue170006Ev, symObjAddr: 0xB77C, symBinAddr: 0x10000EDDC, symSize: 0x28 }
  - { offsetInCU: 0x22586, offset: 0x22586, size: 0x8, addend: 0x0, symName: __ZNKSt3__119__map_value_compareINS_4pairINS_6vectorIhNS_9allocatorIhEEEES5_EENS_12__value_typeIS6_iEENS_4lessIS6_EELb1EEclB8ue170006ERKS6_RKS8_, symObjAddr: 0xB7A4, symBinAddr: 0x10000EE04, symSize: 0x50 }
  - { offsetInCU: 0x225CA, offset: 0x225CA, size: 0x8, addend: 0x0, symName: __ZNKSt3__119__map_value_compareINS_4pairINS_6vectorIhNS_9allocatorIhEEEES5_EENS_12__value_typeIS6_iEENS_4lessIS6_EELb1EEclB8ue170006ERKS8_RKS6_, symObjAddr: 0xB7F4, symBinAddr: 0x10000EE54, symSize: 0x48 }
  - { offsetInCU: 0x2260E, offset: 0x2260E, size: 0x8, addend: 0x0, symName: __ZNSt3__117__compressed_pairImNS_19__map_value_compareINS_4pairINS_6vectorIhNS_9allocatorIhEEEES6_EENS_12__value_typeIS7_iEENS_4lessIS7_EELb1EEEE6secondB8ue170006Ev, symObjAddr: 0xB83C, symBinAddr: 0x10000EE9C, symSize: 0x24 }
  - { offsetInCU: 0x22634, offset: 0x22634, size: 0x8, addend: 0x0, symName: __ZNSt3__122__compressed_pair_elemINS_19__map_value_compareINS_4pairINS_6vectorIhNS_9allocatorIhEEEES6_EENS_12__value_typeIS7_iEENS_4lessIS7_EELb1EEELi1ELb1EE5__getB8ue170006Ev, symObjAddr: 0xB860, symBinAddr: 0x10000EEC0, symSize: 0x14 }
  - { offsetInCU: 0x2265A, offset: 0x2265A, size: 0x8, addend: 0x0, symName: __ZNKSt3__14lessINS_4pairINS_6vectorIhNS_9allocatorIhEEEES5_EEEclB8ue170006ERKS6_S9_, symObjAddr: 0xB874, symBinAddr: 0x10000EED4, symSize: 0x34 }
  - { offsetInCU: 0x2269E, offset: 0x2269E, size: 0x8, addend: 0x0, symName: __ZNKSt3__112__value_typeINS_4pairINS_6vectorIhNS_9allocatorIhEEEES5_EEiE11__get_valueB8ue170006Ev, symObjAddr: 0xB8A8, symBinAddr: 0x10000EF08, symSize: 0x14 }
  - { offsetInCU: 0x226C4, offset: 0x226C4, size: 0x8, addend: 0x0, symName: __ZNKSt3__16__lessIvvEclB8ue170006IhhEEbRKT_RKT0_, symObjAddr: 0xBC08, symBinAddr: 0x10000F268, symSize: 0x34 }
  - { offsetInCU: 0x22718, offset: 0x22718, size: 0x8, addend: 0x0, symName: __ZNKSt3__111__wrap_iterIPKhEdeB8ue170006Ev, symObjAddr: 0xBC3C, symBinAddr: 0x10000F29C, symSize: 0x18 }
  - { offsetInCU: 0x2273E, offset: 0x2273E, size: 0x8, addend: 0x0, symName: __ZNSt3__111__wrap_iterIPKhEppB8ue170006Ev, symObjAddr: 0xBC54, symBinAddr: 0x10000F2B4, symSize: 0x20 }
  - { offsetInCU: 0x22764, offset: 0x22764, size: 0x8, addend: 0x0, symName: __ZNSt3__116allocator_traitsINS_9allocatorINS_11__tree_nodeINS_12__value_typeINS_4pairINS_6vectorIhNS1_IhEEEES7_EEiEEPvEEEEE8allocateB8ue170006ERSC_m, symObjAddr: 0xBC74, symBinAddr: 0x10000F2D4, symSize: 0x2C }
  - { offsetInCU: 0x22797, offset: 0x22797, size: 0x8, addend: 0x0, symName: __ZNSt3__122__tree_node_destructorINS_9allocatorINS_11__tree_nodeINS_12__value_typeINS_4pairINS_6vectorIhNS1_IhEEEES7_EEiEEPvEEEEEC1B8ue170006ERSC_b, symObjAddr: 0xBCA0, symBinAddr: 0x10000F300, symSize: 0x48 }
  - { offsetInCU: 0x227E4, offset: 0x227E4, size: 0x8, addend: 0x0, symName: __ZNSt3__110unique_ptrINS_11__tree_nodeINS_12__value_typeINS_4pairINS_6vectorIhNS_9allocatorIhEEEES7_EEiEEPvEENS_22__tree_node_destructorINS5_ISB_EEEEEC1B8ue170006ILb1EvEEPSB_NS_16__dependent_typeINS_27__unique_ptr_deleter_sfinaeISE_EEXT_EE20__good_rval_ref_typeE, symObjAddr: 0xBCE8, symBinAddr: 0x10000F348, symSize: 0x3C }
  - { offsetInCU: 0x22835, offset: 0x22835, size: 0x8, addend: 0x0, symName: __ZNSt3__116allocator_traitsINS_9allocatorINS_11__tree_nodeINS_12__value_typeINS_4pairINS_6vectorIhNS1_IhEEEES7_EEiEEPvEEEEE9constructB8ue170006INS4_IKS8_iEEJRKNS_21piecewise_construct_tENS_5tupleIJRSF_EEENSK_IJEEEEvEEvRSC_PT_DpOT0_, symObjAddr: 0xBD24, symBinAddr: 0x10000F384, symSize: 0x44 }
  - { offsetInCU: 0x228B4, offset: 0x228B4, size: 0x8, addend: 0x0, symName: __ZNKSt3__110unique_ptrINS_11__tree_nodeINS_12__value_typeINS_4pairINS_6vectorIhNS_9allocatorIhEEEES7_EEiEEPvEENS_22__tree_node_destructorINS5_ISB_EEEEEptB8ue170006Ev, symObjAddr: 0xBD68, symBinAddr: 0x10000F3C8, symSize: 0x28 }
  - { offsetInCU: 0x228DA, offset: 0x228DA, size: 0x8, addend: 0x0, symName: __ZNSt3__110unique_ptrINS_11__tree_nodeINS_12__value_typeINS_4pairINS_6vectorIhNS_9allocatorIhEEEES7_EEiEEPvEENS_22__tree_node_destructorINS5_ISB_EEEEE11get_deleterB8ue170006Ev, symObjAddr: 0xBD90, symBinAddr: 0x10000F3F0, symSize: 0x24 }
  - { offsetInCU: 0x22900, offset: 0x22900, size: 0x8, addend: 0x0, symName: __ZNSt3__19allocatorINS_11__tree_nodeINS_12__value_typeINS_4pairINS_6vectorIhNS0_IhEEEES6_EEiEEPvEEE8allocateB8ue170006Em, symObjAddr: 0xBDB4, symBinAddr: 0x10000F414, symSize: 0x5C }
  - { offsetInCU: 0x2293E, offset: 0x2293E, size: 0x8, addend: 0x0, symName: __ZNSt3__116allocator_traitsINS_9allocatorINS_11__tree_nodeINS_12__value_typeINS_4pairINS_6vectorIhNS1_IhEEEES7_EEiEEPvEEEEE8max_sizeB8ue170006ISC_vEEmRKSC_, symObjAddr: 0xBE10, symBinAddr: 0x10000F470, symSize: 0x24 }
  - { offsetInCU: 0x2296C, offset: 0x2296C, size: 0x8, addend: 0x0, symName: __ZNKSt3__19allocatorINS_11__tree_nodeINS_12__value_typeINS_4pairINS_6vectorIhNS0_IhEEEES6_EEiEEPvEEE8max_sizeB8ue170006Ev, symObjAddr: 0xBE34, symBinAddr: 0x10000F494, symSize: 0x20 }
  - { offsetInCU: 0x22992, offset: 0x22992, size: 0x8, addend: 0x0, symName: __ZNSt3__122__tree_node_destructorINS_9allocatorINS_11__tree_nodeINS_12__value_typeINS_4pairINS_6vectorIhNS1_IhEEEES7_EEiEEPvEEEEEC2B8ue170006ERSC_b, symObjAddr: 0xBE54, symBinAddr: 0x10000F4B4, symSize: 0x38 }
  - { offsetInCU: 0x229DA, offset: 0x229DA, size: 0x8, addend: 0x0, symName: __ZNSt3__110unique_ptrINS_11__tree_nodeINS_12__value_typeINS_4pairINS_6vectorIhNS_9allocatorIhEEEES7_EEiEEPvEENS_22__tree_node_destructorINS5_ISB_EEEEEC2B8ue170006ILb1EvEEPSB_NS_16__dependent_typeINS_27__unique_ptr_deleter_sfinaeISE_EEXT_EE20__good_rval_ref_typeE, symObjAddr: 0xBE8C, symBinAddr: 0x10000F4EC, symSize: 0x48 }
  - { offsetInCU: 0x22A2B, offset: 0x22A2B, size: 0x8, addend: 0x0, symName: __ZNSt3__117__compressed_pairIPNS_11__tree_nodeINS_12__value_typeINS_4pairINS_6vectorIhNS_9allocatorIhEEEES7_EEiEEPvEENS_22__tree_node_destructorINS5_ISB_EEEEEC1B8ue170006IRSC_SF_EEOT_OT0_, symObjAddr: 0xBED4, symBinAddr: 0x10000F534, symSize: 0x3C }
  - { offsetInCU: 0x22A83, offset: 0x22A83, size: 0x8, addend: 0x0, symName: __ZNSt3__117__compressed_pairIPNS_11__tree_nodeINS_12__value_typeINS_4pairINS_6vectorIhNS_9allocatorIhEEEES7_EEiEEPvEENS_22__tree_node_destructorINS5_ISB_EEEEEC2B8ue170006IRSC_SF_EEOT_OT0_, symObjAddr: 0xBF10, symBinAddr: 0x10000F570, symSize: 0x48 }
  - { offsetInCU: 0x22ADB, offset: 0x22ADB, size: 0x8, addend: 0x0, symName: __ZNSt3__122__compressed_pair_elemIPNS_11__tree_nodeINS_12__value_typeINS_4pairINS_6vectorIhNS_9allocatorIhEEEES7_EEiEEPvEELi0ELb0EEC2B8ue170006IRSC_vEEOT_, symObjAddr: 0xBF58, symBinAddr: 0x10000F5B8, symSize: 0x24 }
  - { offsetInCU: 0x22B1D, offset: 0x22B1D, size: 0x8, addend: 0x0, symName: __ZNSt3__122__compressed_pair_elemINS_22__tree_node_destructorINS_9allocatorINS_11__tree_nodeINS_12__value_typeINS_4pairINS_6vectorIhNS2_IhEEEES8_EEiEEPvEEEEEELi1ELb0EEC2B8ue170006ISE_vEEOT_, symObjAddr: 0xBF7C, symBinAddr: 0x10000F5DC, symSize: 0x24 }
  - { offsetInCU: 0x22B5F, offset: 0x22B5F, size: 0x8, addend: 0x0, symName: __ZNSt3__19allocatorINS_11__tree_nodeINS_12__value_typeINS_4pairINS_6vectorIhNS0_IhEEEES6_EEiEEPvEEE9constructB8ue170006INS3_IKS7_iEEJRKNS_21piecewise_construct_tENS_5tupleIJRSD_EEENSI_IJEEEEEEvPT_DpOT0_, symObjAddr: 0xBFA0, symBinAddr: 0x10000F600, symSize: 0x44 }
  - { offsetInCU: 0x22BDB, offset: 0x22BDB, size: 0x8, addend: 0x0, symName: __ZNSt3__14pairIKNS0_INS_6vectorIhNS_9allocatorIhEEEES4_EEiEC1B8ue170006IJRS6_EJEEENS_21piecewise_construct_tENS_5tupleIJDpT_EEENSB_IJDpT0_EEE, symObjAddr: 0xBFE4, symBinAddr: 0x10000F644, symSize: 0x3C }
  - { offsetInCU: 0x22C42, offset: 0x22C42, size: 0x8, addend: 0x0, symName: __ZNSt3__14pairIKNS0_INS_6vectorIhNS_9allocatorIhEEEES4_EEiEC1B8ue170006IJRS6_EJEJLm0EEJEEENS_21piecewise_construct_tERNS_5tupleIJDpT_EEERNSB_IJDpT0_EEENS_15__tuple_indicesIJXspT1_EEEENSK_IJXspT2_EEEE, symObjAddr: 0xC020, symBinAddr: 0x10000F680, symSize: 0x3C }
  - { offsetInCU: 0x22CCF, offset: 0x22CCF, size: 0x8, addend: 0x0, symName: __ZNSt3__14pairIKNS0_INS_6vectorIhNS_9allocatorIhEEEES4_EEiEC2B8ue170006IJRS6_EJEJLm0EEJEEENS_21piecewise_construct_tERNS_5tupleIJDpT_EEERNSB_IJDpT0_EEENS_15__tuple_indicesIJXspT1_EEEENSK_IJXspT2_EEEE, symObjAddr: 0xC05C, symBinAddr: 0x10000F6BC, symSize: 0x48 }
  - { offsetInCU: 0x22D5C, offset: 0x22D5C, size: 0x8, addend: 0x0, symName: __ZNSt3__112__tuple_leafILm0ERKNS_4pairINS_6vectorIhNS_9allocatorIhEEEES5_EELb0EE3getB8ue170006Ev, symObjAddr: 0xC0C8, symBinAddr: 0x10000F728, symSize: 0x18 }
  - { offsetInCU: 0x22D82, offset: 0x22D82, size: 0x8, addend: 0x0, symName: __ZNKSt3__117__compressed_pairIPNS_11__tree_nodeINS_12__value_typeINS_4pairINS_6vectorIhNS_9allocatorIhEEEES7_EEiEEPvEENS_22__tree_node_destructorINS5_ISB_EEEEE5firstB8ue170006Ev, symObjAddr: 0xC0E0, symBinAddr: 0x10000F740, symSize: 0x24 }
  - { offsetInCU: 0x22DA8, offset: 0x22DA8, size: 0x8, addend: 0x0, symName: __ZNKSt3__122__compressed_pair_elemIPNS_11__tree_nodeINS_12__value_typeINS_4pairINS_6vectorIhNS_9allocatorIhEEEES7_EEiEEPvEELi0ELb0EE5__getB8ue170006Ev, symObjAddr: 0xC104, symBinAddr: 0x10000F764, symSize: 0x14 }
  - { offsetInCU: 0x22DCE, offset: 0x22DCE, size: 0x8, addend: 0x0, symName: __ZNSt3__117__compressed_pairIPNS_11__tree_nodeINS_12__value_typeINS_4pairINS_6vectorIhNS_9allocatorIhEEEES7_EEiEEPvEENS_22__tree_node_destructorINS5_ISB_EEEEE6secondB8ue170006Ev, symObjAddr: 0xC118, symBinAddr: 0x10000F778, symSize: 0x28 }
  - { offsetInCU: 0x22DF4, offset: 0x22DF4, size: 0x8, addend: 0x0, symName: __ZNSt3__122__compressed_pair_elemINS_22__tree_node_destructorINS_9allocatorINS_11__tree_nodeINS_12__value_typeINS_4pairINS_6vectorIhNS2_IhEEEES8_EEiEEPvEEEEEELi1ELb0EE5__getB8ue170006Ev, symObjAddr: 0xC140, symBinAddr: 0x10000F7A0, symSize: 0x14 }
  - { offsetInCU: 0x22E1A, offset: 0x22E1A, size: 0x8, addend: 0x0, symName: __ZNSt3__16__treeINS_12__value_typeINS_4pairINS_6vectorIhNS_9allocatorIhEEEES6_EEiEENS_19__map_value_compareIS7_S8_NS_4lessIS7_EELb1EEENS4_IS8_EEE4sizeB8ue170006Ev, symObjAddr: 0xC154, symBinAddr: 0x10000F7B4, symSize: 0x28 }
  - { offsetInCU: 0x22E40, offset: 0x22E40, size: 0x8, addend: 0x0, symName: __ZNSt3__117__compressed_pairImNS_19__map_value_compareINS_4pairINS_6vectorIhNS_9allocatorIhEEEES6_EENS_12__value_typeIS7_iEENS_4lessIS7_EELb1EEEE5firstB8ue170006Ev, symObjAddr: 0xC17C, symBinAddr: 0x10000F7DC, symSize: 0x24 }
  - { offsetInCU: 0x22E66, offset: 0x22E66, size: 0x8, addend: 0x0, symName: __ZNSt3__117__compressed_pairIPNS_11__tree_nodeINS_12__value_typeINS_4pairINS_6vectorIhNS_9allocatorIhEEEES7_EEiEEPvEENS_22__tree_node_destructorINS5_ISB_EEEEE5firstB8ue170006Ev, symObjAddr: 0xC1A0, symBinAddr: 0x10000F800, symSize: 0x24 }
  - { offsetInCU: 0x22E8C, offset: 0x22E8C, size: 0x8, addend: 0x0, symName: __ZNSt3__122__compressed_pair_elemIPNS_11__tree_nodeINS_12__value_typeINS_4pairINS_6vectorIhNS_9allocatorIhEEEES7_EEiEEPvEELi0ELb0EE5__getB8ue170006Ev, symObjAddr: 0xC1C4, symBinAddr: 0x10000F824, symSize: 0x14 }
  - { offsetInCU: 0x22EB2, offset: 0x22EB2, size: 0x8, addend: 0x0, symName: __ZNSt3__110unique_ptrINS_11__tree_nodeINS_12__value_typeINS_4pairINS_6vectorIhNS_9allocatorIhEEEES7_EEiEEPvEENS_22__tree_node_destructorINS5_ISB_EEEEED2B8ue170006Ev, symObjAddr: 0xC1D8, symBinAddr: 0x10000F838, symSize: 0x30 }
  - { offsetInCU: 0x22EDC, offset: 0x22EDC, size: 0x8, addend: 0x0, symName: __ZNSt3__110unique_ptrINS_11__tree_nodeINS_12__value_typeINS_4pairINS_6vectorIhNS_9allocatorIhEEEES7_EEiEEPvEENS_22__tree_node_destructorINS5_ISB_EEEEE5resetB8ue170006EPSB_, symObjAddr: 0xC208, symBinAddr: 0x10000F868, symSize: 0x78 }
  - { offsetInCU: 0x22F20, offset: 0x22F20, size: 0x8, addend: 0x0, symName: __ZNSt3__122__tree_node_destructorINS_9allocatorINS_11__tree_nodeINS_12__value_typeINS_4pairINS_6vectorIhNS1_IhEEEES7_EEiEEPvEEEEEclB8ue170006EPSB_, symObjAddr: 0xC280, symBinAddr: 0x10000F8E0, symSize: 0x94 }
  - { offsetInCU: 0x22F55, offset: 0x22F55, size: 0x8, addend: 0x0, symName: __ZNSt3__115__tree_iteratorINS_12__value_typeINS_4pairINS_6vectorIhNS_9allocatorIhEEEES6_EEiEEPNS_11__tree_nodeIS8_PvEElEC2B8ue170006ESC_, symObjAddr: 0xC314, symBinAddr: 0x10000F974, symSize: 0x20 }
  - { offsetInCU: 0x22F8E, offset: 0x22F8E, size: 0x8, addend: 0x0, symName: __ZNSt3__14pairINS_15__tree_iteratorINS_12__value_typeINS0_INS_6vectorIhNS_9allocatorIhEEEES6_EEiEEPNS_11__tree_nodeIS8_PvEElEEbEC2B8ue170006ISD_RbLSA_0EEEOT_OT0_, symObjAddr: 0xC334, symBinAddr: 0x10000F994, symSize: 0x38 }
  - { offsetInCU: 0x22FEC, offset: 0x22FEC, size: 0x8, addend: 0x0, symName: __ZNSt3__15tupleIJRKNS_4pairINS_6vectorIhNS_9allocatorIhEEEES5_EEEEC1B8ue170006INS_4_AndELi0EEES8_, symObjAddr: 0xC36C, symBinAddr: 0x10000F9CC, symSize: 0x34 }
  - { offsetInCU: 0x23034, offset: 0x23034, size: 0x8, addend: 0x0, symName: __ZNSt3__15tupleIJRKNS_4pairINS_6vectorIhNS_9allocatorIhEEEES5_EEEEC2B8ue170006INS_4_AndELi0EEES8_, symObjAddr: 0xC3A0, symBinAddr: 0x10000FA00, symSize: 0x34 }
  - { offsetInCU: 0x2307C, offset: 0x2307C, size: 0x8, addend: 0x0, symName: __ZNSt3__112__tuple_implINS_15__tuple_indicesIJLm0EEEEJRKNS_4pairINS_6vectorIhNS_9allocatorIhEEEES7_EEEEC1B8ue170006IJLm0EEJSA_EJEJEJSA_EEENS1_IJXspT_EEEENS_13__tuple_typesIJDpT0_EEENS1_IJXspT1_EEEENSE_IJDpT2_EEEDpOT3_, symObjAddr: 0xC3D4, symBinAddr: 0x10000FA34, symSize: 0x34 }
  - { offsetInCU: 0x2310D, offset: 0x2310D, size: 0x8, addend: 0x0, symName: __ZNSt3__112__tuple_implINS_15__tuple_indicesIJLm0EEEEJRKNS_4pairINS_6vectorIhNS_9allocatorIhEEEES7_EEEEC2B8ue170006IJLm0EEJSA_EJEJEJSA_EEENS1_IJXspT_EEEENS_13__tuple_typesIJDpT0_EEENS1_IJXspT1_EEEENSE_IJDpT2_EEEDpOT3_, symObjAddr: 0xC408, symBinAddr: 0x10000FA68, symSize: 0x34 }
  - { offsetInCU: 0x2319E, offset: 0x2319E, size: 0x8, addend: 0x0, symName: __ZNSt3__112__tuple_leafILm0ERKNS_4pairINS_6vectorIhNS_9allocatorIhEEEES5_EELb0EEC2B8ue170006IS8_vEEOT_, symObjAddr: 0xC43C, symBinAddr: 0x10000FA9C, symSize: 0x20 }
  - { offsetInCU: 0x231E1, offset: 0x231E1, size: 0x8, addend: 0x0, symName: __ZNSt3__114pointer_traitsIPNS_12__value_typeINS_4pairINS_6vectorIhNS_9allocatorIhEEEES6_EEiEEE10pointer_toB8ue170006ERS8_, symObjAddr: 0xC45C, symBinAddr: 0x10000FABC, symSize: 0x14 }
  - { offsetInCU: 0x23204, offset: 0x23204, size: 0x8, addend: 0x0, symName: __ZNKSt3__115__tree_iteratorINS_12__value_typeINS_4pairINS_6vectorIhNS_9allocatorIhEEEES6_EEiEEPNS_11__tree_nodeIS8_PvEElE8__get_npB8ue170006Ev, symObjAddr: 0xC470, symBinAddr: 0x10000FAD0, symSize: 0x18 }
  - { offsetInCU: 0x2322A, offset: 0x2322A, size: 0x8, addend: 0x0, symName: __ZNSt3__16__treeINS_12__value_typeINS_4pairINS_6vectorIhNS_9allocatorIhEEEES6_EEiEENS_19__map_value_compareIS7_S8_NS_4lessIS7_EELb1EEENS4_IS8_EEE5beginB8ue170006Ev, symObjAddr: 0xC488, symBinAddr: 0x10000FAE8, symSize: 0x34 }
  - { offsetInCU: 0x23250, offset: 0x23250, size: 0x8, addend: 0x0, symName: __ZNSt3__114__map_iteratorINS_15__tree_iteratorINS_12__value_typeINS_4pairINS_6vectorIhNS_9allocatorIhEEEES7_EEiEEPNS_11__tree_nodeIS9_PvEElEEEC1B8ue170006ESE_, symObjAddr: 0xC4BC, symBinAddr: 0x10000FB1C, symSize: 0x34 }
  - { offsetInCU: 0x23289, offset: 0x23289, size: 0x8, addend: 0x0, symName: __ZNSt3__115__tree_iteratorINS_12__value_typeINS_4pairINS_6vectorIhNS_9allocatorIhEEEES6_EEiEEPNS_11__tree_nodeIS8_PvEElEC1B8ue170006EPNS_15__tree_end_nodeIPNS_16__tree_node_baseISA_EEEE, symObjAddr: 0xC4F0, symBinAddr: 0x10000FB50, symSize: 0x34 }
  - { offsetInCU: 0x232C2, offset: 0x232C2, size: 0x8, addend: 0x0, symName: __ZNSt3__115__tree_iteratorINS_12__value_typeINS_4pairINS_6vectorIhNS_9allocatorIhEEEES6_EEiEEPNS_11__tree_nodeIS8_PvEElEC2B8ue170006EPNS_15__tree_end_nodeIPNS_16__tree_node_baseISA_EEEE, symObjAddr: 0xC524, symBinAddr: 0x10000FB84, symSize: 0x20 }
  - { offsetInCU: 0x232FB, offset: 0x232FB, size: 0x8, addend: 0x0, symName: __ZNSt3__114__map_iteratorINS_15__tree_iteratorINS_12__value_typeINS_4pairINS_6vectorIhNS_9allocatorIhEEEES7_EEiEEPNS_11__tree_nodeIS9_PvEElEEEC2B8ue170006ESE_, symObjAddr: 0xC544, symBinAddr: 0x10000FBA4, symSize: 0x20 }
  - { offsetInCU: 0x23334, offset: 0x23334, size: 0x8, addend: 0x0, symName: __ZNSt3__16__treeINS_12__value_typeINS_4pairINS_6vectorIhNS_9allocatorIhEEEES6_EEiEENS_19__map_value_compareIS7_S8_NS_4lessIS7_EELb1EEENS4_IS8_EEE3endB8ue170006Ev, symObjAddr: 0xC564, symBinAddr: 0x10000FBC4, symSize: 0x34 }
  - { offsetInCU: 0x2335A, offset: 0x2335A, size: 0x8, addend: 0x0, symName: __ZNSt3__16vectorINS_4pairINS1_INS0_IhNS_9allocatorIhEEEES4_EEiEENS2_IS6_EEEC2INS_14__map_iteratorINS_15__tree_iteratorINS_12__value_typeIS5_iEEPNS_11__tree_nodeISD_PvEElEEEELi0EEET_SK_, symObjAddr: 0xC598, symBinAddr: 0x10000FBF8, symSize: 0x94 }
  - { offsetInCU: 0x233D0, offset: 0x233D0, size: 0x8, addend: 0x0, symName: __ZNSt3__117__compressed_pairIPNS_4pairINS1_INS_6vectorIhNS_9allocatorIhEEEES5_EEiEENS3_IS7_EEEC1B8ue170006IDnNS_18__default_init_tagEEEOT_OT0_, symObjAddr: 0xC62C, symBinAddr: 0x10000FC8C, symSize: 0x3C }
  - { offsetInCU: 0x23428, offset: 0x23428, size: 0x8, addend: 0x0, symName: __ZNSt3__16vectorINS_4pairINS1_INS0_IhNS_9allocatorIhEEEES4_EEiEENS2_IS6_EEE16__init_with_sizeB8ue170006INS_14__map_iteratorINS_15__tree_iteratorINS_12__value_typeIS5_iEEPNS_11__tree_nodeISD_PvEElEEEESJ_EEvT_T0_m, symObjAddr: 0xC6A4, symBinAddr: 0x10000FD04, symSize: 0xC8 }
  - { offsetInCU: 0x2349C, offset: 0x2349C, size: 0x8, addend: 0x0, symName: __ZNSt3__117__compressed_pairIPNS_4pairINS1_INS_6vectorIhNS_9allocatorIhEEEES5_EEiEENS3_IS7_EEEC2B8ue170006IDnNS_18__default_init_tagEEEOT_OT0_, symObjAddr: 0xC76C, symBinAddr: 0x10000FDCC, symSize: 0x40 }
  - { offsetInCU: 0x234F4, offset: 0x234F4, size: 0x8, addend: 0x0, symName: __ZNSt3__122__compressed_pair_elemIPNS_4pairINS1_INS_6vectorIhNS_9allocatorIhEEEES5_EEiEELi0ELb0EEC2B8ue170006IDnvEEOT_, symObjAddr: 0xC7AC, symBinAddr: 0x10000FE0C, symSize: 0x1C }
  - { offsetInCU: 0x23536, offset: 0x23536, size: 0x8, addend: 0x0, symName: __ZNSt3__122__compressed_pair_elemINS_9allocatorINS_4pairINS2_INS_6vectorIhNS1_IhEEEES5_EEiEEEELi1ELb1EEC2B8ue170006ENS_18__default_init_tagE, symObjAddr: 0xC7C8, symBinAddr: 0x10000FE28, symSize: 0x2C }
  - { offsetInCU: 0x2356A, offset: 0x2356A, size: 0x8, addend: 0x0, symName: __ZNSt3__19allocatorINS_4pairINS1_INS_6vectorIhNS0_IhEEEES4_EEiEEEC2B8ue170006Ev, symObjAddr: 0xC7F4, symBinAddr: 0x10000FE54, symSize: 0x2C }
  - { offsetInCU: 0x23594, offset: 0x23594, size: 0x8, addend: 0x0, symName: __ZNSt3__116__non_trivial_ifILb1ENS_9allocatorINS_4pairINS2_INS_6vectorIhNS1_IhEEEES5_EEiEEEEEC2B8ue170006Ev, symObjAddr: 0xC820, symBinAddr: 0x10000FE80, symSize: 0x14 }
  - { offsetInCU: 0x235BE, offset: 0x235BE, size: 0x8, addend: 0x0, symName: __ZNSt3__114__map_iteratorINS_15__tree_iteratorINS_12__value_typeINS_4pairINS_6vectorIhNS_9allocatorIhEEEES7_EEiEEPNS_11__tree_nodeIS9_PvEElEEEppB8ue170006Ev, symObjAddr: 0xC8C0, symBinAddr: 0x10000FF20, symSize: 0x2C }
  - { offsetInCU: 0x235E4, offset: 0x235E4, size: 0x8, addend: 0x0, symName: __ZNSt3__115__tree_iteratorINS_12__value_typeINS_4pairINS_6vectorIhNS_9allocatorIhEEEES6_EEiEEPNS_11__tree_nodeIS8_PvEElEppB8ue170006Ev, symObjAddr: 0xC950, symBinAddr: 0x10000FFB0, symSize: 0x38 }
  - { offsetInCU: 0x2360A, offset: 0x2360A, size: 0x8, addend: 0x0, symName: __ZNSt3__16vectorINS_4pairINS1_INS0_IhNS_9allocatorIhEEEES4_EEiEENS2_IS6_EEE16__destroy_vectorC1B8ue170006ERS8_, symObjAddr: 0xCA88, symBinAddr: 0x1000100E8, symSize: 0x34 }
  - { offsetInCU: 0x23643, offset: 0x23643, size: 0x8, addend: 0x0, symName: __ZNSt3__16vectorINS_4pairINS1_INS0_IhNS_9allocatorIhEEEES4_EEiEENS2_IS6_EEE11__vallocateB8ue170006Em, symObjAddr: 0xCABC, symBinAddr: 0x10001011C, symSize: 0xB4 }
  - { offsetInCU: 0x23687, offset: 0x23687, size: 0x8, addend: 0x0, symName: __ZNSt3__16vectorINS_4pairINS1_INS0_IhNS_9allocatorIhEEEES4_EEiEENS2_IS6_EEE18__construct_at_endINS_14__map_iteratorINS_15__tree_iteratorINS_12__value_typeIS5_iEEPNS_11__tree_nodeISD_PvEElEEEESJ_EEvT_T0_m, symObjAddr: 0xCB70, symBinAddr: 0x1000101D0, symSize: 0x9C }
  - { offsetInCU: 0x236FD, offset: 0x236FD, size: 0x8, addend: 0x0, symName: __ZNSt3__128__exception_guard_exceptionsINS_6vectorINS_4pairINS2_INS1_IhNS_9allocatorIhEEEES5_EEiEENS3_IS7_EEE16__destroy_vectorEE10__completeB8ue170006Ev, symObjAddr: 0xCC0C, symBinAddr: 0x10001026C, symSize: 0x1C }
  - { offsetInCU: 0x23723, offset: 0x23723, size: 0x8, addend: 0x0, symName: __ZNSt3__128__exception_guard_exceptionsINS_6vectorINS_4pairINS2_INS1_IhNS_9allocatorIhEEEES5_EEiEENS3_IS7_EEE16__destroy_vectorEED1B8ue170006Ev, symObjAddr: 0xCC28, symBinAddr: 0x100010288, symSize: 0x2C }
  - { offsetInCU: 0x2374D, offset: 0x2374D, size: 0x8, addend: 0x0, symName: __ZNSt3__128__exception_guard_exceptionsINS_6vectorINS_4pairINS2_INS1_IhNS_9allocatorIhEEEES5_EEiEENS3_IS7_EEE16__destroy_vectorEEC1B8ue170006ESA_, symObjAddr: 0xCC54, symBinAddr: 0x1000102B4, symSize: 0x34 }
  - { offsetInCU: 0x23785, offset: 0x23785, size: 0x8, addend: 0x0, symName: __ZNSt3__128__exception_guard_exceptionsINS_6vectorINS_4pairINS2_INS1_IhNS_9allocatorIhEEEES5_EEiEENS3_IS7_EEE16__destroy_vectorEEC2B8ue170006ESA_, symObjAddr: 0xCC88, symBinAddr: 0x1000102E8, symSize: 0x24 }
  - { offsetInCU: 0x237BD, offset: 0x237BD, size: 0x8, addend: 0x0, symName: __ZNSt3__16vectorINS_4pairINS1_INS0_IhNS_9allocatorIhEEEES4_EEiEENS2_IS6_EEE16__destroy_vectorC2B8ue170006ERS8_, symObjAddr: 0xCCAC, symBinAddr: 0x10001030C, symSize: 0x20 }
  - { offsetInCU: 0x237F6, offset: 0x237F6, size: 0x8, addend: 0x0, symName: __ZNKSt3__16vectorINS_4pairINS1_INS0_IhNS_9allocatorIhEEEES4_EEiEENS2_IS6_EEE8max_sizeEv, symObjAddr: 0xCCCC, symBinAddr: 0x10001032C, symSize: 0x60 }
  - { offsetInCU: 0x2381E, offset: 0x2381E, size: 0x8, addend: 0x0, symName: __ZNKSt3__16vectorINS_4pairINS1_INS0_IhNS_9allocatorIhEEEES4_EEiEENS2_IS6_EEE20__throw_length_errorB8ue170006Ev, symObjAddr: 0xCD2C, symBinAddr: 0x10001038C, symSize: 0x1C }
  - { offsetInCU: 0x23844, offset: 0x23844, size: 0x8, addend: 0x0, symName: __ZNSt3__16vectorINS_4pairINS1_INS0_IhNS_9allocatorIhEEEES4_EEiEENS2_IS6_EEE7__allocB8ue170006Ev, symObjAddr: 0xCD88, symBinAddr: 0x1000103E8, symSize: 0x28 }
  - { offsetInCU: 0x2386A, offset: 0x2386A, size: 0x8, addend: 0x0, symName: __ZNSt3__16vectorINS_4pairINS1_INS0_IhNS_9allocatorIhEEEES4_EEiEENS2_IS6_EEE9__end_capB8ue170006Ev, symObjAddr: 0xCDB0, symBinAddr: 0x100010410, symSize: 0x28 }
  - { offsetInCU: 0x23890, offset: 0x23890, size: 0x8, addend: 0x0, symName: __ZNKSt3__16vectorINS_4pairINS1_INS0_IhNS_9allocatorIhEEEES4_EEiEENS2_IS6_EEE14__annotate_newB8ue170006Em, symObjAddr: 0xCDD8, symBinAddr: 0x100010438, symSize: 0xC8 }
  - { offsetInCU: 0x238CF, offset: 0x238CF, size: 0x8, addend: 0x0, symName: __ZNSt3__116allocator_traitsINS_9allocatorINS_4pairINS2_INS_6vectorIhNS1_IhEEEES5_EEiEEEEE8max_sizeB8ue170006IS8_vEEmRKS8_, symObjAddr: 0xCEA0, symBinAddr: 0x100010500, symSize: 0x24 }
  - { offsetInCU: 0x238FD, offset: 0x238FD, size: 0x8, addend: 0x0, symName: __ZNKSt3__16vectorINS_4pairINS1_INS0_IhNS_9allocatorIhEEEES4_EEiEENS2_IS6_EEE7__allocB8ue170006Ev, symObjAddr: 0xCEC4, symBinAddr: 0x100010524, symSize: 0x28 }
  - { offsetInCU: 0x23923, offset: 0x23923, size: 0x8, addend: 0x0, symName: __ZNKSt3__19allocatorINS_4pairINS1_INS_6vectorIhNS0_IhEEEES4_EEiEEE8max_sizeB8ue170006Ev, symObjAddr: 0xCEEC, symBinAddr: 0x10001054C, symSize: 0x20 }
  - { offsetInCU: 0x23949, offset: 0x23949, size: 0x8, addend: 0x0, symName: __ZNKSt3__117__compressed_pairIPNS_4pairINS1_INS_6vectorIhNS_9allocatorIhEEEES5_EEiEENS3_IS7_EEE6secondB8ue170006Ev, symObjAddr: 0xCF0C, symBinAddr: 0x10001056C, symSize: 0x24 }
  - { offsetInCU: 0x2396F, offset: 0x2396F, size: 0x8, addend: 0x0, symName: __ZNKSt3__122__compressed_pair_elemINS_9allocatorINS_4pairINS2_INS_6vectorIhNS1_IhEEEES5_EEiEEEELi1ELb1EE5__getB8ue170006Ev, symObjAddr: 0xCF30, symBinAddr: 0x100010590, symSize: 0x14 }
  - { offsetInCU: 0x23995, offset: 0x23995, size: 0x8, addend: 0x0, symName: __ZNSt3__19allocatorINS_4pairINS1_INS_6vectorIhNS0_IhEEEES4_EEiEEE8allocateB8ue170006Em, symObjAddr: 0xCF44, symBinAddr: 0x1000105A4, symSize: 0x5C }
  - { offsetInCU: 0x239C9, offset: 0x239C9, size: 0x8, addend: 0x0, symName: __ZNSt3__117__compressed_pairIPNS_4pairINS1_INS_6vectorIhNS_9allocatorIhEEEES5_EEiEENS3_IS7_EEE6secondB8ue170006Ev, symObjAddr: 0xCFA0, symBinAddr: 0x100010600, symSize: 0x24 }
  - { offsetInCU: 0x239EF, offset: 0x239EF, size: 0x8, addend: 0x0, symName: __ZNSt3__122__compressed_pair_elemINS_9allocatorINS_4pairINS2_INS_6vectorIhNS1_IhEEEES5_EEiEEEELi1ELb1EE5__getB8ue170006Ev, symObjAddr: 0xCFC4, symBinAddr: 0x100010624, symSize: 0x14 }
  - { offsetInCU: 0x23A15, offset: 0x23A15, size: 0x8, addend: 0x0, symName: __ZNSt3__117__compressed_pairIPNS_4pairINS1_INS_6vectorIhNS_9allocatorIhEEEES5_EEiEENS3_IS7_EEE5firstB8ue170006Ev, symObjAddr: 0xCFD8, symBinAddr: 0x100010638, symSize: 0x24 }
  - { offsetInCU: 0x23A3B, offset: 0x23A3B, size: 0x8, addend: 0x0, symName: __ZNSt3__122__compressed_pair_elemIPNS_4pairINS1_INS_6vectorIhNS_9allocatorIhEEEES5_EEiEELi0ELb0EE5__getB8ue170006Ev, symObjAddr: 0xCFFC, symBinAddr: 0x10001065C, symSize: 0x14 }
  - { offsetInCU: 0x23A61, offset: 0x23A61, size: 0x8, addend: 0x0, symName: __ZNKSt3__16vectorINS_4pairINS1_INS0_IhNS_9allocatorIhEEEES4_EEiEENS2_IS6_EEE31__annotate_contiguous_containerB8ue170006EPKvSA_SA_SA_, symObjAddr: 0xD010, symBinAddr: 0x100010670, symSize: 0x20 }
  - { offsetInCU: 0x23AB3, offset: 0x23AB3, size: 0x8, addend: 0x0, symName: __ZNKSt3__16vectorINS_4pairINS1_INS0_IhNS_9allocatorIhEEEES4_EEiEENS2_IS6_EEE4dataB8ue170006Ev, symObjAddr: 0xD030, symBinAddr: 0x100010690, symSize: 0x28 }
  - { offsetInCU: 0x23AD9, offset: 0x23AD9, size: 0x8, addend: 0x0, symName: __ZNKSt3__16vectorINS_4pairINS1_INS0_IhNS_9allocatorIhEEEES4_EEiEENS2_IS6_EEE8capacityB8ue170006Ev, symObjAddr: 0xD058, symBinAddr: 0x1000106B8, symSize: 0x40 }
  - { offsetInCU: 0x23AFF, offset: 0x23AFF, size: 0x8, addend: 0x0, symName: __ZNKSt3__16vectorINS_4pairINS1_INS0_IhNS_9allocatorIhEEEES4_EEiEENS2_IS6_EEE9__end_capB8ue170006Ev, symObjAddr: 0xD0AC, symBinAddr: 0x10001070C, symSize: 0x28 }
  - { offsetInCU: 0x23B25, offset: 0x23B25, size: 0x8, addend: 0x0, symName: __ZNKSt3__117__compressed_pairIPNS_4pairINS1_INS_6vectorIhNS_9allocatorIhEEEES5_EEiEENS3_IS7_EEE5firstB8ue170006Ev, symObjAddr: 0xD0D4, symBinAddr: 0x100010734, symSize: 0x24 }
  - { offsetInCU: 0x23B4B, offset: 0x23B4B, size: 0x8, addend: 0x0, symName: __ZNKSt3__122__compressed_pair_elemIPNS_4pairINS1_INS_6vectorIhNS_9allocatorIhEEEES5_EEiEELi0ELb0EE5__getB8ue170006Ev, symObjAddr: 0xD0F8, symBinAddr: 0x100010758, symSize: 0x14 }
  - { offsetInCU: 0x23B8A, offset: 0x23B8A, size: 0x8, addend: 0x0, symName: __ZNSt3__16vectorINS_4pairINS1_INS0_IhNS_9allocatorIhEEEES4_EEiEENS2_IS6_EEE21_ConstructTransactionC1B8ue170006ERS8_m, symObjAddr: 0xD10C, symBinAddr: 0x10001076C, symSize: 0x3C }
  - { offsetInCU: 0x23BD2, offset: 0x23BD2, size: 0x8, addend: 0x0, symName: __ZNSt3__16vectorINS_4pairINS1_INS0_IhNS_9allocatorIhEEEES4_EEiEENS2_IS6_EEE21_ConstructTransactionD1B8ue170006Ev, symObjAddr: 0xD1D8, symBinAddr: 0x100010838, symSize: 0x2C }
  - { offsetInCU: 0x23BFC, offset: 0x23BFC, size: 0x8, addend: 0x0, symName: __ZNSt3__16vectorINS_4pairINS1_INS0_IhNS_9allocatorIhEEEES4_EEiEENS2_IS6_EEE21_ConstructTransactionC2B8ue170006ERS8_m, symObjAddr: 0xD204, symBinAddr: 0x100010864, symSize: 0x4C }
  - { offsetInCU: 0x23C49, offset: 0x23C49, size: 0x8, addend: 0x0, symName: __ZNSt3__14pairINS_14__map_iteratorINS_15__tree_iteratorINS_12__value_typeINS0_INS_6vectorIhNS_9allocatorIhEEEES7_EEiEEPNS_11__tree_nodeIS9_PvEElEEEESF_EC1B8ue170006ISF_SF_LSB_0EEEOT_OT0_, symObjAddr: 0xD49C, symBinAddr: 0x100010AFC, symSize: 0x3C }
  - { offsetInCU: 0x23CA7, offset: 0x23CA7, size: 0x8, addend: 0x0, symName: __ZNSt3__14pairINS_14__map_iteratorINS_15__tree_iteratorINS_12__value_typeINS0_INS_6vectorIhNS_9allocatorIhEEEES7_EEiEEPNS_11__tree_nodeIS9_PvEElEEEESF_EC2B8ue170006ISF_SF_LSB_0EEEOT_OT0_, symObjAddr: 0xD4D8, symBinAddr: 0x100010B38, symSize: 0x34 }
  - { offsetInCU: 0x23D05, offset: 0x23D05, size: 0x8, addend: 0x0, symName: __ZNSt3__118__unwrap_iter_implINS_14__map_iteratorINS_15__tree_iteratorINS_12__value_typeINS_4pairINS_6vectorIhNS_9allocatorIhEEEES8_EEiEEPNS_11__tree_nodeISA_PvEElEEEELb0EE8__unwrapB8ue170006ESG_, symObjAddr: 0xD50C, symBinAddr: 0x100010B6C, symSize: 0x1C }
  - { offsetInCU: 0x23D28, offset: 0x23D28, size: 0x8, addend: 0x0, symName: __ZNSt3__129_AllocatorDestroyRangeReverseINS_9allocatorINS_4pairINS2_INS_6vectorIhNS1_IhEEEES5_EEiEEEEPS7_EC1B8ue170006ERS8_RS9_SC_, symObjAddr: 0xD574, symBinAddr: 0x100010BD4, symSize: 0x44 }
  - { offsetInCU: 0x23D7F, offset: 0x23D7F, size: 0x8, addend: 0x0, symName: __ZNSt3__116allocator_traitsINS_9allocatorINS_4pairINS2_INS_6vectorIhNS1_IhEEEES5_EEiEEEEE9constructB8ue170006IS7_JRNS2_IKS6_iEEEvEEvRS8_PT_DpOT0_, symObjAddr: 0xD5B8, symBinAddr: 0x100010C18, symSize: 0x34 }
  - { offsetInCU: 0x23DD6, offset: 0x23DD6, size: 0x8, addend: 0x0, symName: __ZNKSt3__114__map_iteratorINS_15__tree_iteratorINS_12__value_typeINS_4pairINS_6vectorIhNS_9allocatorIhEEEES7_EEiEEPNS_11__tree_nodeIS9_PvEElEEEdeB8ue170006Ev, symObjAddr: 0xD5EC, symBinAddr: 0x100010C4C, symSize: 0x28 }
  - { offsetInCU: 0x23DFC, offset: 0x23DFC, size: 0x8, addend: 0x0, symName: __ZNSt3__128__exception_guard_exceptionsINS_29_AllocatorDestroyRangeReverseINS_9allocatorINS_4pairINS3_INS_6vectorIhNS2_IhEEEES6_EEiEEEEPS8_EEE10__completeB8ue170006Ev, symObjAddr: 0xD614, symBinAddr: 0x100010C74, symSize: 0x1C }
  - { offsetInCU: 0x23E22, offset: 0x23E22, size: 0x8, addend: 0x0, symName: __ZNSt3__128__exception_guard_exceptionsINS_29_AllocatorDestroyRangeReverseINS_9allocatorINS_4pairINS3_INS_6vectorIhNS2_IhEEEES6_EEiEEEEPS8_EEED1B8ue170006Ev, symObjAddr: 0xD630, symBinAddr: 0x100010C90, symSize: 0x2C }
  - { offsetInCU: 0x23E4C, offset: 0x23E4C, size: 0x8, addend: 0x0, symName: __ZNSt3__128__exception_guard_exceptionsINS_29_AllocatorDestroyRangeReverseINS_9allocatorINS_4pairINS3_INS_6vectorIhNS2_IhEEEES6_EEiEEEEPS8_EEEC1B8ue170006ESB_, symObjAddr: 0xD65C, symBinAddr: 0x100010CBC, symSize: 0x34 }
  - { offsetInCU: 0x23E85, offset: 0x23E85, size: 0x8, addend: 0x0, symName: __ZNSt3__128__exception_guard_exceptionsINS_29_AllocatorDestroyRangeReverseINS_9allocatorINS_4pairINS3_INS_6vectorIhNS2_IhEEEES6_EEiEEEEPS8_EEEC2B8ue170006ESB_, symObjAddr: 0xD690, symBinAddr: 0x100010CF0, symSize: 0x30 }
  - { offsetInCU: 0x23EBE, offset: 0x23EBE, size: 0x8, addend: 0x0, symName: __ZNSt3__129_AllocatorDestroyRangeReverseINS_9allocatorINS_4pairINS2_INS_6vectorIhNS1_IhEEEES5_EEiEEEEPS7_EC2B8ue170006ERS8_RS9_SC_, symObjAddr: 0xD6C0, symBinAddr: 0x100010D20, symSize: 0x38 }
  - { offsetInCU: 0x23F15, offset: 0x23F15, size: 0x8, addend: 0x0, symName: __ZNSt3__19allocatorINS_4pairINS1_INS_6vectorIhNS0_IhEEEES4_EEiEEE9constructB8ue170006IS6_JRNS1_IKS5_iEEEEEvPT_DpOT0_, symObjAddr: 0xD6F8, symBinAddr: 0x100010D58, symSize: 0x30 }
  - { offsetInCU: 0x23F6B, offset: 0x23F6B, size: 0x8, addend: 0x0, symName: __ZNSt3__14pairINS0_INS_6vectorIhNS_9allocatorIhEEEES4_EEiEC1B8ue170006IKS5_iLPv0EEERKNS0_IT_T0_EE, symObjAddr: 0xD728, symBinAddr: 0x100010D88, symSize: 0x34 }
  - { offsetInCU: 0x23FBB, offset: 0x23FBB, size: 0x8, addend: 0x0, symName: __ZNSt3__14pairINS0_INS_6vectorIhNS_9allocatorIhEEEES4_EEiEC2B8ue170006IKS5_iLPv0EEERKNS0_IT_T0_EE, symObjAddr: 0xD75C, symBinAddr: 0x100010DBC, symSize: 0x40 }
  - { offsetInCU: 0x2400B, offset: 0x2400B, size: 0x8, addend: 0x0, symName: __ZNSt3__128__exception_guard_exceptionsINS_29_AllocatorDestroyRangeReverseINS_9allocatorINS_4pairINS3_INS_6vectorIhNS2_IhEEEES6_EEiEEEEPS8_EEED2B8ue170006Ev, symObjAddr: 0xD79C, symBinAddr: 0x100010DFC, symSize: 0x50 }
  - { offsetInCU: 0x24035, offset: 0x24035, size: 0x8, addend: 0x0, symName: __ZNKSt3__129_AllocatorDestroyRangeReverseINS_9allocatorINS_4pairINS2_INS_6vectorIhNS1_IhEEEES5_EEiEEEEPS7_EclB8ue170006Ev, symObjAddr: 0xD7EC, symBinAddr: 0x100010E4C, symSize: 0x68 }
  - { offsetInCU: 0x2405B, offset: 0x2405B, size: 0x8, addend: 0x0, symName: __ZNSt3__116reverse_iteratorIPNS_4pairINS1_INS_6vectorIhNS_9allocatorIhEEEES5_EEiEEEC1B8ue170006ES8_, symObjAddr: 0xD8C4, symBinAddr: 0x100010F24, symSize: 0x34 }
  - { offsetInCU: 0x24093, offset: 0x24093, size: 0x8, addend: 0x0, symName: __ZNSt3__116allocator_traitsINS_9allocatorINS_4pairINS2_INS_6vectorIhNS1_IhEEEES5_EEiEEEEE7destroyB8ue170006IS7_vEEvRS8_PT_, symObjAddr: 0xD940, symBinAddr: 0x100010FA0, symSize: 0x2C }
  - { offsetInCU: 0x240D0, offset: 0x240D0, size: 0x8, addend: 0x0, symName: __ZNSt3__116reverse_iteratorIPNS_4pairINS1_INS_6vectorIhNS_9allocatorIhEEEES5_EEiEEEppB8ue170006Ev, symObjAddr: 0xD990, symBinAddr: 0x100010FF0, symSize: 0x20 }
  - { offsetInCU: 0x240F6, offset: 0x240F6, size: 0x8, addend: 0x0, symName: __ZNKSt3__116reverse_iteratorIPNS_4pairINS1_INS_6vectorIhNS_9allocatorIhEEEES5_EEiEEE4baseB8ue170006Ev, symObjAddr: 0xD9B0, symBinAddr: 0x100011010, symSize: 0x18 }
  - { offsetInCU: 0x2411C, offset: 0x2411C, size: 0x8, addend: 0x0, symName: __ZNSt3__19allocatorINS_4pairINS1_INS_6vectorIhNS0_IhEEEES4_EEiEEE7destroyB8ue170006EPS6_, symObjAddr: 0xD9C8, symBinAddr: 0x100011028, symSize: 0x28 }
  - { offsetInCU: 0x24150, offset: 0x24150, size: 0x8, addend: 0x0, symName: __ZNSt3__14pairINS0_INS_6vectorIhNS_9allocatorIhEEEES4_EEiED1Ev, symObjAddr: 0xD9F0, symBinAddr: 0x100011050, symSize: 0x2C }
  - { offsetInCU: 0x2417C, offset: 0x2417C, size: 0x8, addend: 0x0, symName: __ZNSt3__14pairINS0_INS_6vectorIhNS_9allocatorIhEEEES4_EEiED2Ev, symObjAddr: 0xDA1C, symBinAddr: 0x10001107C, symSize: 0x2C }
  - { offsetInCU: 0x241AD, offset: 0x241AD, size: 0x8, addend: 0x0, symName: __ZNSt3__119__to_address_helperINS_16reverse_iteratorIPNS_4pairINS2_INS_6vectorIhNS_9allocatorIhEEEES6_EEiEEEEvE6__callB8ue170006ERKSA_, symObjAddr: 0xDA48, symBinAddr: 0x1000110A8, symSize: 0x38 }
  - { offsetInCU: 0x241D0, offset: 0x241D0, size: 0x8, addend: 0x0, symName: __ZNKSt3__116reverse_iteratorIPNS_4pairINS1_INS_6vectorIhNS_9allocatorIhEEEES5_EEiEEEptB8ue170006Ev, symObjAddr: 0xDA80, symBinAddr: 0x1000110E0, symSize: 0x24 }
  - { offsetInCU: 0x241F6, offset: 0x241F6, size: 0x8, addend: 0x0, symName: __ZNKSt3__116reverse_iteratorIPNS_4pairINS1_INS_6vectorIhNS_9allocatorIhEEEES5_EEiEEEdeB8ue170006Ev, symObjAddr: 0xDAA4, symBinAddr: 0x100011104, symSize: 0x28 }
  - { offsetInCU: 0x2422A, offset: 0x2422A, size: 0x8, addend: 0x0, symName: __ZNSt3__116reverse_iteratorIPNS_4pairINS1_INS_6vectorIhNS_9allocatorIhEEEES5_EEiEEEC2B8ue170006ES8_, symObjAddr: 0xDACC, symBinAddr: 0x10001112C, symSize: 0x28 }
  - { offsetInCU: 0x24262, offset: 0x24262, size: 0x8, addend: 0x0, symName: __ZNSt3__118__unwrap_iter_implIPNS_4pairINS1_INS_6vectorIhNS_9allocatorIhEEEES5_EEiEELb1EE8__unwrapB8ue170006ES8_, symObjAddr: 0xDAF4, symBinAddr: 0x100011154, symSize: 0x24 }
  - { offsetInCU: 0x24285, offset: 0x24285, size: 0x8, addend: 0x0, symName: __ZNSt3__118__unwrap_iter_implIPNS_4pairINS1_INS_6vectorIhNS_9allocatorIhEEEES5_EEiEELb1EE8__rewrapB8ue170006ES8_S8_, symObjAddr: 0xDB18, symBinAddr: 0x100011178, symSize: 0x58 }
  - { offsetInCU: 0x242B6, offset: 0x242B6, size: 0x8, addend: 0x0, symName: __ZNSt3__16vectorINS_4pairINS1_INS0_IhNS_9allocatorIhEEEES4_EEiEENS2_IS6_EEE21_ConstructTransactionD2B8ue170006Ev, symObjAddr: 0xDB70, symBinAddr: 0x1000111D0, symSize: 0x20 }
  - { offsetInCU: 0x242E0, offset: 0x242E0, size: 0x8, addend: 0x0, symName: __ZNSt3__128__exception_guard_exceptionsINS_6vectorINS_4pairINS2_INS1_IhNS_9allocatorIhEEEES5_EEiEENS3_IS7_EEE16__destroy_vectorEED2B8ue170006Ev, symObjAddr: 0xDB90, symBinAddr: 0x1000111F0, symSize: 0x50 }
  - { offsetInCU: 0x2430A, offset: 0x2430A, size: 0x8, addend: 0x0, symName: __ZNSt3__16vectorINS_4pairINS1_INS0_IhNS_9allocatorIhEEEES4_EEiEENS2_IS6_EEE16__destroy_vectorclB8ue170006Ev, symObjAddr: 0xDBE0, symBinAddr: 0x100011240, symSize: 0x90 }
  - { offsetInCU: 0x24330, offset: 0x24330, size: 0x8, addend: 0x0, symName: __ZNSt3__16vectorINS_4pairINS1_INS0_IhNS_9allocatorIhEEEES4_EEiEENS2_IS6_EEE7__clearB8ue170006Ev, symObjAddr: 0xDC70, symBinAddr: 0x1000112D0, symSize: 0x28 }
  - { offsetInCU: 0x24356, offset: 0x24356, size: 0x8, addend: 0x0, symName: __ZNKSt3__16vectorINS_4pairINS1_INS0_IhNS_9allocatorIhEEEES4_EEiEENS2_IS6_EEE17__annotate_deleteB8ue170006Ev, symObjAddr: 0xDC98, symBinAddr: 0x1000112F8, symSize: 0xD4 }
  - { offsetInCU: 0x2437C, offset: 0x2437C, size: 0x8, addend: 0x0, symName: __ZNSt3__116allocator_traitsINS_9allocatorINS_4pairINS2_INS_6vectorIhNS1_IhEEEES5_EEiEEEEE10deallocateB8ue170006ERS8_PS7_m, symObjAddr: 0xDD6C, symBinAddr: 0x1000113CC, symSize: 0x34 }
  - { offsetInCU: 0x243BE, offset: 0x243BE, size: 0x8, addend: 0x0, symName: __ZNSt3__16vectorINS_4pairINS1_INS0_IhNS_9allocatorIhEEEES4_EEiEENS2_IS6_EEE22__base_destruct_at_endB8ue170006EPS6_, symObjAddr: 0xDDA0, symBinAddr: 0x100011400, symSize: 0x8C }
  - { offsetInCU: 0x24402, offset: 0x24402, size: 0x8, addend: 0x0, symName: __ZNKSt3__16vectorINS_4pairINS1_INS0_IhNS_9allocatorIhEEEES4_EEiEENS2_IS6_EEE4sizeB8ue170006Ev, symObjAddr: 0xDE2C, symBinAddr: 0x10001148C, symSize: 0x28 }
  - { offsetInCU: 0x24428, offset: 0x24428, size: 0x8, addend: 0x0, symName: __ZNSt3__19allocatorINS_4pairINS1_INS_6vectorIhNS0_IhEEEES4_EEiEEE10deallocateB8ue170006EPS6_m, symObjAddr: 0xDE54, symBinAddr: 0x1000114B4, symSize: 0x44 }
  - { offsetInCU: 0x2446A, offset: 0x2446A, size: 0x8, addend: 0x0, symName: __ZNSt3__16vectorINS_4pairINS1_INS0_IhNS_9allocatorIhEEEES4_EEiEENS2_IS6_EEED2B8ue170006Ev, symObjAddr: 0xDE98, symBinAddr: 0x1000114F8, symSize: 0x40 }
  - { offsetInCU: 0x24494, offset: 0x24494, size: 0x8, addend: 0x0, symName: __ZNSt3__16vectorINS_4pairINS1_INS0_IhNS_9allocatorIhEEEES4_EEiEENS2_IS6_EEE11__make_iterB8ue170006EPS6_, symObjAddr: 0xDED8, symBinAddr: 0x100011538, symSize: 0x30 }
  - { offsetInCU: 0x244C9, offset: 0x244C9, size: 0x8, addend: 0x0, symName: __ZNSt3__111__wrap_iterIPNS_4pairINS1_INS_6vectorIhNS_9allocatorIhEEEES5_EEiEEEC1B8ue170006ES8_, symObjAddr: 0xDF08, symBinAddr: 0x100011568, symSize: 0x34 }
  - { offsetInCU: 0x24501, offset: 0x24501, size: 0x8, addend: 0x0, symName: __ZNSt3__111__wrap_iterIPNS_4pairINS1_INS_6vectorIhNS_9allocatorIhEEEES5_EEiEEEC2B8ue170006ES8_, symObjAddr: 0xDF3C, symBinAddr: 0x10001159C, symSize: 0x20 }
  - { offsetInCU: 0x24539, offset: 0x24539, size: 0x8, addend: 0x0, symName: __ZNSt3__18_IterOpsINS_17_ClassicAlgPolicyEE9iter_swapB8ue170006IRPNS_4pairINS4_INS_6vectorIhNS_9allocatorIhEEEES8_EEiEESC_EEvOT_OT0_, symObjAddr: 0xE5C0, symBinAddr: 0x100011C20, symSize: 0x34 }
  - { offsetInCU: 0x24581, offset: 0x24581, size: 0x8, addend: 0x0, symName: __ZNSt3__18_IterOpsINS_17_ClassicAlgPolicyEE9iter_swapB8ue170006IRPNS_4pairINS4_INS_6vectorIhNS_9allocatorIhEEEES8_EEiEESB_EEvOT_OT0_, symObjAddr: 0xEBB4, symBinAddr: 0x100012214, symSize: 0x34 }
  - { offsetInCU: 0x245C4, offset: 0x245C4, size: 0x8, addend: 0x0, symName: __ZNSt3__14pairINS0_INS_6vectorIhNS_9allocatorIhEEEES4_EEiE4swapB8ue170006ERS6_, symObjAddr: 0xF8F4, symBinAddr: 0x100012F54, symSize: 0x44 }
  - { offsetInCU: 0x245F9, offset: 0x245F9, size: 0x8, addend: 0x0, symName: __ZNSt3__14pairINS_6vectorIhNS_9allocatorIhEEEES4_E4swapB8ue170006ERS5_, symObjAddr: 0xF9A0, symBinAddr: 0x100013000, symSize: 0x44 }
  - { offsetInCU: 0x2462E, offset: 0x2462E, size: 0x8, addend: 0x0, symName: __ZNSt3__16vectorIhNS_9allocatorIhEEE4swapERS3_, symObjAddr: 0xFA10, symBinAddr: 0x100013070, symSize: 0x84 }
  - { offsetInCU: 0x24665, offset: 0x24665, size: 0x8, addend: 0x0, symName: __ZNSt3__18_IterOpsINS_17_ClassicAlgPolicyEE11__iter_moveB8ue170006IRPNS_4pairINS4_INS_6vectorIhNS_9allocatorIhEEEES8_EEiEEEENS_9enable_ifIXsr12is_referenceIDTdeclsr3stdE7declvalIRT_EEEEE5valueEDTclsr3stdE4movedeclsr3stdE7declvalISF_EEEEE4typeEOSE_, symObjAddr: 0xFC64, symBinAddr: 0x1000132C4, symSize: 0x28 }
  - { offsetInCU: 0x24691, offset: 0x24691, size: 0x8, addend: 0x0, symName: __ZNSt3__14pairINS0_INS_6vectorIhNS_9allocatorIhEEEES4_EEiEC1B8ue170006EOS6_, symObjAddr: 0xFC8C, symBinAddr: 0x1000132EC, symSize: 0x34 }
  - { offsetInCU: 0x246C5, offset: 0x246C5, size: 0x8, addend: 0x0, symName: __ZNSt3__14pairINS0_INS_6vectorIhNS_9allocatorIhEEEES4_EEiEaSB8ue170006EOS6_, symObjAddr: 0xFCC0, symBinAddr: 0x100013320, symSize: 0x40 }
  - { offsetInCU: 0x246FA, offset: 0x246FA, size: 0x8, addend: 0x0, symName: __ZNSt3__18_IterOpsINS_17_ClassicAlgPolicyEE25__validate_iter_referenceB8ue170006IRPNS_4pairINS4_INS_6vectorIhNS_9allocatorIhEEEES8_EEiEEEEvv, symObjAddr: 0xFD00, symBinAddr: 0x100013360, symSize: 0x4 }
  - { offsetInCU: 0x24718, offset: 0x24718, size: 0x8, addend: 0x0, symName: __ZNSt3__14pairINS0_INS_6vectorIhNS_9allocatorIhEEEES4_EEiEC2B8ue170006EOS6_, symObjAddr: 0xFD04, symBinAddr: 0x100013364, symSize: 0x40 }
  - { offsetInCU: 0x2474C, offset: 0x2474C, size: 0x8, addend: 0x0, symName: __ZNSt3__14pairINS_6vectorIhNS_9allocatorIhEEEES4_EC1B8ue170006EOS5_, symObjAddr: 0xFD44, symBinAddr: 0x1000133A4, symSize: 0x34 }
  - { offsetInCU: 0x24780, offset: 0x24780, size: 0x8, addend: 0x0, symName: __ZNSt3__14pairINS_6vectorIhNS_9allocatorIhEEEES4_EC2B8ue170006EOS5_, symObjAddr: 0xFD78, symBinAddr: 0x1000133D8, symSize: 0x48 }
  - { offsetInCU: 0x247B4, offset: 0x247B4, size: 0x8, addend: 0x0, symName: __ZNSt3__14pairINS_6vectorIhNS_9allocatorIhEEEES4_EaSB8ue170006EOS5_, symObjAddr: 0xFDC0, symBinAddr: 0x100013420, symSize: 0x48 }
  - { offsetInCU: 0x247E9, offset: 0x247E9, size: 0x8, addend: 0x0, symName: __ZNSt3__16vectorIhNS_9allocatorIhEEEaSB8ue170006EOS3_, symObjAddr: 0xFE08, symBinAddr: 0x100013468, symSize: 0x34 }
  - { offsetInCU: 0x24820, offset: 0x24820, size: 0x8, addend: 0x0, symName: __ZNSt3__16vectorIhNS_9allocatorIhEEE13__move_assignERS3_NS_17integral_constantIbLb1EEE, symObjAddr: 0xFE3C, symBinAddr: 0x10001349C, symSize: 0x94 }
  - { offsetInCU: 0x24862, offset: 0x24862, size: 0x8, addend: 0x0, symName: __ZNSt3__16vectorIhNS_9allocatorIhEEE13__vdeallocateEv, symObjAddr: 0xFED0, symBinAddr: 0x100013530, symSize: 0x94 }
  - { offsetInCU: 0x2488A, offset: 0x2488A, size: 0x8, addend: 0x0, symName: __ZNSt3__16vectorIhNS_9allocatorIhEEE19__move_assign_allocB8ue170006ERS3_, symObjAddr: 0xFF64, symBinAddr: 0x1000135C4, symSize: 0x2C }
  - { offsetInCU: 0x248BF, offset: 0x248BF, size: 0x8, addend: 0x0, symName: __ZNSt3__16vectorIhNS_9allocatorIhEEE5clearB8ue170006Ev, symObjAddr: 0xFF90, symBinAddr: 0x1000135F0, symSize: 0x44 }
  - { offsetInCU: 0x248F4, offset: 0x248F4, size: 0x8, addend: 0x0, symName: __ZNKSt3__16vectorIhNS_9allocatorIhEEE17__annotate_shrinkB8ue170006Em, symObjAddr: 0xFFD4, symBinAddr: 0x100013634, symSize: 0xB4 }
  - { offsetInCU: 0x24929, offset: 0x24929, size: 0x8, addend: 0x0, symName: __ZNSt3__16vectorIhNS_9allocatorIhEEE19__move_assign_allocB8ue170006ERS3_NS_17integral_constantIbLb1EEE, symObjAddr: 0x10088, symBinAddr: 0x1000136E8, symSize: 0x38 }
  - { offsetInCU: 0x24969, offset: 0x24969, size: 0x8, addend: 0x0, symName: __ZNSt3__18_IterOpsINS_17_ClassicAlgPolicyEE4nextB8ue170006IPNS_4pairINS4_INS_6vectorIhNS_9allocatorIhEEEES8_EEiEEEET_SC_SC_, symObjAddr: 0x100C0, symBinAddr: 0x100013720, symSize: 0x18 }
  - { offsetInCU: 0x2499F, offset: 0x2499F, size: 0x8, addend: 0x0, symName: __ZNSt3__18_IterOpsINS_17_ClassicAlgPolicyEE9iter_swapB8ue170006IPNS_4pairINS4_INS_6vectorIhNS_9allocatorIhEEEES8_EEiEESB_EEvOT_OT0_, symObjAddr: 0x11158, symBinAddr: 0x1000147B8, symSize: 0x34 }
  - { offsetInCU: 0x249FB, offset: 0x249FB, size: 0x8, addend: 0x0, symName: __ZNSt3__14pairIPNS0_INS0_INS_6vectorIhNS_9allocatorIhEEEES4_EEiEEbEC1B8ue170006IRS7_RbLPv0EEEOT_OT0_, symObjAddr: 0x111A8, symBinAddr: 0x100014808, symSize: 0x3C }
  - { offsetInCU: 0x24A59, offset: 0x24A59, size: 0x8, addend: 0x0, symName: __ZNSt3__14pairIPNS0_INS0_INS_6vectorIhNS_9allocatorIhEEEES4_EEiEEbEC2B8ue170006IRS7_RbLPv0EEEOT_OT0_, symObjAddr: 0x111E4, symBinAddr: 0x100014844, symSize: 0x38 }
  - { offsetInCU: 0x24AB7, offset: 0x24AB7, size: 0x8, addend: 0x0, symName: __ZNSt3__118__unwrap_iter_implINS_11__wrap_iterIPNS_4pairINS2_INS_6vectorIhNS_9allocatorIhEEEES6_EEiEEEELb1EE8__unwrapB8ue170006ESA_, symObjAddr: 0x1121C, symBinAddr: 0x10001487C, symSize: 0x28 }
  - { offsetInCU: 0x24AE4, offset: 0x24AE4, size: 0x8, addend: 0x0, symName: __ZNSt3__119__to_address_helperINS_11__wrap_iterIPNS_4pairINS2_INS_6vectorIhNS_9allocatorIhEEEES6_EEiEEEEvE6__callB8ue170006ERKSA_, symObjAddr: 0x11268, symBinAddr: 0x1000148C8, symSize: 0x30 }
  - { offsetInCU: 0x24B07, offset: 0x24B07, size: 0x8, addend: 0x0, symName: __ZNSt3__114pointer_traitsINS_11__wrap_iterIPNS_4pairINS2_INS_6vectorIhNS_9allocatorIhEEEES6_EEiEEEEE10to_addressB8ue170006ESA_, symObjAddr: 0x11298, symBinAddr: 0x1000148F8, symSize: 0x2C }
  - { offsetInCU: 0x24B2A, offset: 0x24B2A, size: 0x8, addend: 0x0, symName: __ZNSt3__16vectorINS_4pairINS0_IhNS_9allocatorIhEEEES4_EENS2_IS5_EEE22__construct_one_at_endB8ue170006IJRKS5_EEEvDpOT_, symObjAddr: 0x112C4, symBinAddr: 0x100014924, symSize: 0x90 }
  - { offsetInCU: 0x24B79, offset: 0x24B79, size: 0x8, addend: 0x0, symName: __ZNSt3__16vectorINS_4pairINS0_IhNS_9allocatorIhEEEES4_EENS2_IS5_EEE21__push_back_slow_pathIRKS5_EEvOT_, symObjAddr: 0x11354, symBinAddr: 0x1000149B4, symSize: 0xD8 }
  - { offsetInCU: 0x24BF0, offset: 0x24BF0, size: 0x8, addend: 0x0, symName: __ZNSt3__16vectorINS_4pairINS0_IhNS_9allocatorIhEEEES4_EENS2_IS5_EEE21_ConstructTransactionC1B8ue170006ERS7_m, symObjAddr: 0x1142C, symBinAddr: 0x100014A8C, symSize: 0x3C }
  - { offsetInCU: 0x24C38, offset: 0x24C38, size: 0x8, addend: 0x0, symName: __ZNSt3__116allocator_traitsINS_9allocatorINS_4pairINS_6vectorIhNS1_IhEEEES5_EEEEE9constructB8ue170006IS6_JRKS6_EvEEvRS7_PT_DpOT0_, symObjAddr: 0x11468, symBinAddr: 0x100014AC8, symSize: 0x34 }
  - { offsetInCU: 0x24C8F, offset: 0x24C8F, size: 0x8, addend: 0x0, symName: __ZNSt3__16vectorINS_4pairINS0_IhNS_9allocatorIhEEEES4_EENS2_IS5_EEE21_ConstructTransactionD1B8ue170006Ev, symObjAddr: 0x1149C, symBinAddr: 0x100014AFC, symSize: 0x2C }
  - { offsetInCU: 0x24CB9, offset: 0x24CB9, size: 0x8, addend: 0x0, symName: __ZNSt3__16vectorINS_4pairINS0_IhNS_9allocatorIhEEEES4_EENS2_IS5_EEE21_ConstructTransactionC2B8ue170006ERS7_m, symObjAddr: 0x114C8, symBinAddr: 0x100014B28, symSize: 0x4C }
  - { offsetInCU: 0x24D01, offset: 0x24D01, size: 0x8, addend: 0x0, symName: __ZNSt3__19allocatorINS_4pairINS_6vectorIhNS0_IhEEEES4_EEE9constructB8ue170006IS5_JRKS5_EEEvPT_DpOT0_, symObjAddr: 0x11514, symBinAddr: 0x100014B74, symSize: 0x30 }
  - { offsetInCU: 0x24D57, offset: 0x24D57, size: 0x8, addend: 0x0, symName: __ZNSt3__16vectorINS_4pairINS0_IhNS_9allocatorIhEEEES4_EENS2_IS5_EEE21_ConstructTransactionD2B8ue170006Ev, symObjAddr: 0x11544, symBinAddr: 0x100014BA4, symSize: 0x20 }
  - { offsetInCU: 0x24D81, offset: 0x24D81, size: 0x8, addend: 0x0, symName: __ZNKSt3__16vectorINS_4pairINS0_IhNS_9allocatorIhEEEES4_EENS2_IS5_EEE11__recommendB8ue170006Em, symObjAddr: 0x11564, symBinAddr: 0x100014BC4, symSize: 0xB4 }
  - { offsetInCU: 0x24DD6, offset: 0x24DD6, size: 0x8, addend: 0x0, symName: __ZNSt3__114__split_bufferINS_4pairINS_6vectorIhNS_9allocatorIhEEEES5_EERNS3_IS6_EEEC1EmmS8_, symObjAddr: 0x11618, symBinAddr: 0x100014C78, symSize: 0x44 }
  - { offsetInCU: 0x24E2C, offset: 0x24E2C, size: 0x8, addend: 0x0, symName: __ZNSt3__114__split_bufferINS_4pairINS_6vectorIhNS_9allocatorIhEEEES5_EERNS3_IS6_EEED1Ev, symObjAddr: 0x1176C, symBinAddr: 0x100014DCC, symSize: 0x2C }
  - { offsetInCU: 0x24E58, offset: 0x24E58, size: 0x8, addend: 0x0, symName: __ZNKSt3__16vectorINS_4pairINS0_IhNS_9allocatorIhEEEES4_EENS2_IS5_EEE8max_sizeEv, symObjAddr: 0x11798, symBinAddr: 0x100014DF8, symSize: 0x60 }
  - { offsetInCU: 0x24E80, offset: 0x24E80, size: 0x8, addend: 0x0, symName: __ZNKSt3__16vectorINS_4pairINS0_IhNS_9allocatorIhEEEES4_EENS2_IS5_EEE20__throw_length_errorB8ue170006Ev, symObjAddr: 0x117F8, symBinAddr: 0x100014E58, symSize: 0x1C }
  - { offsetInCU: 0x24EB0, offset: 0x24EB0, size: 0x8, addend: 0x0, symName: __ZNSt3__116allocator_traitsINS_9allocatorINS_4pairINS_6vectorIhNS1_IhEEEES5_EEEEE8max_sizeB8ue170006IS7_vEEmRKS7_, symObjAddr: 0x11814, symBinAddr: 0x100014E74, symSize: 0x24 }
  - { offsetInCU: 0x24EDE, offset: 0x24EDE, size: 0x8, addend: 0x0, symName: __ZNKSt3__16vectorINS_4pairINS0_IhNS_9allocatorIhEEEES4_EENS2_IS5_EEE7__allocB8ue170006Ev, symObjAddr: 0x11838, symBinAddr: 0x100014E98, symSize: 0x28 }
  - { offsetInCU: 0x24F04, offset: 0x24F04, size: 0x8, addend: 0x0, symName: __ZNKSt3__19allocatorINS_4pairINS_6vectorIhNS0_IhEEEES4_EEE8max_sizeB8ue170006Ev, symObjAddr: 0x11860, symBinAddr: 0x100014EC0, symSize: 0x18 }
  - { offsetInCU: 0x24F2A, offset: 0x24F2A, size: 0x8, addend: 0x0, symName: __ZNKSt3__117__compressed_pairIPNS_4pairINS_6vectorIhNS_9allocatorIhEEEES5_EENS3_IS6_EEE6secondB8ue170006Ev, symObjAddr: 0x11878, symBinAddr: 0x100014ED8, symSize: 0x24 }
  - { offsetInCU: 0x24F50, offset: 0x24F50, size: 0x8, addend: 0x0, symName: __ZNKSt3__122__compressed_pair_elemINS_9allocatorINS_4pairINS_6vectorIhNS1_IhEEEES5_EEEELi1ELb1EE5__getB8ue170006Ev, symObjAddr: 0x1189C, symBinAddr: 0x100014EFC, symSize: 0x14 }
  - { offsetInCU: 0x24F76, offset: 0x24F76, size: 0x8, addend: 0x0, symName: __ZNSt3__114__split_bufferINS_4pairINS_6vectorIhNS_9allocatorIhEEEES5_EERNS3_IS6_EEEC2EmmS8_, symObjAddr: 0x118B0, symBinAddr: 0x100014F10, symSize: 0xE0 }
  - { offsetInCU: 0x24FE9, offset: 0x24FE9, size: 0x8, addend: 0x0, symName: __ZNSt3__117__compressed_pairIPNS_4pairINS_6vectorIhNS_9allocatorIhEEEES5_EERNS3_IS6_EEEC1B8ue170006IDnS9_EEOT_OT0_, symObjAddr: 0x11990, symBinAddr: 0x100014FF0, symSize: 0x3C }
  - { offsetInCU: 0x25041, offset: 0x25041, size: 0x8, addend: 0x0, symName: __ZNSt3__114__split_bufferINS_4pairINS_6vectorIhNS_9allocatorIhEEEES5_EERNS3_IS6_EEE7__allocB8ue170006Ev, symObjAddr: 0x11A0C, symBinAddr: 0x10001506C, symSize: 0x28 }
  - { offsetInCU: 0x25067, offset: 0x25067, size: 0x8, addend: 0x0, symName: __ZNSt3__114__split_bufferINS_4pairINS_6vectorIhNS_9allocatorIhEEEES5_EERNS3_IS6_EEE9__end_capB8ue170006Ev, symObjAddr: 0x11A34, symBinAddr: 0x100015094, symSize: 0x28 }
  - { offsetInCU: 0x2508D, offset: 0x2508D, size: 0x8, addend: 0x0, symName: __ZNSt3__117__compressed_pairIPNS_4pairINS_6vectorIhNS_9allocatorIhEEEES5_EERNS3_IS6_EEEC2B8ue170006IDnS9_EEOT_OT0_, symObjAddr: 0x11A5C, symBinAddr: 0x1000150BC, symSize: 0x48 }
  - { offsetInCU: 0x250E5, offset: 0x250E5, size: 0x8, addend: 0x0, symName: __ZNSt3__122__compressed_pair_elemIRNS_9allocatorINS_4pairINS_6vectorIhNS1_IhEEEES5_EEEELi1ELb0EEC2B8ue170006IS8_vEEOT_, symObjAddr: 0x11AA4, symBinAddr: 0x100015104, symSize: 0x20 }
  - { offsetInCU: 0x25127, offset: 0x25127, size: 0x8, addend: 0x0, symName: __ZNSt3__19allocatorINS_4pairINS_6vectorIhNS0_IhEEEES4_EEE8allocateB8ue170006Em, symObjAddr: 0x11AC4, symBinAddr: 0x100015124, symSize: 0x5C }
  - { offsetInCU: 0x2515B, offset: 0x2515B, size: 0x8, addend: 0x0, symName: __ZNSt3__117__compressed_pairIPNS_4pairINS_6vectorIhNS_9allocatorIhEEEES5_EERNS3_IS6_EEE6secondB8ue170006Ev, symObjAddr: 0x11B20, symBinAddr: 0x100015180, symSize: 0x28 }
  - { offsetInCU: 0x25181, offset: 0x25181, size: 0x8, addend: 0x0, symName: __ZNSt3__122__compressed_pair_elemIRNS_9allocatorINS_4pairINS_6vectorIhNS1_IhEEEES5_EEEELi1ELb0EE5__getB8ue170006Ev, symObjAddr: 0x11B48, symBinAddr: 0x1000151A8, symSize: 0x18 }
  - { offsetInCU: 0x251A7, offset: 0x251A7, size: 0x8, addend: 0x0, symName: __ZNSt3__117__compressed_pairIPNS_4pairINS_6vectorIhNS_9allocatorIhEEEES5_EERNS3_IS6_EEE5firstB8ue170006Ev, symObjAddr: 0x11B60, symBinAddr: 0x1000151C0, symSize: 0x24 }
  - { offsetInCU: 0x251CD, offset: 0x251CD, size: 0x8, addend: 0x0, symName: __ZNSt3__116reverse_iteratorIPNS_4pairINS_6vectorIhNS_9allocatorIhEEEES5_EEEC1B8ue170006ES7_, symObjAddr: 0x11CB0, symBinAddr: 0x100015310, symSize: 0x34 }
  - { offsetInCU: 0x25205, offset: 0x25205, size: 0x8, addend: 0x0, symName: __ZNKSt3__116reverse_iteratorIPNS_4pairINS_6vectorIhNS_9allocatorIhEEEES5_EEE4baseB8ue170006Ev, symObjAddr: 0x11CE4, symBinAddr: 0x100015344, symSize: 0x18 }
  - { offsetInCU: 0x2522B, offset: 0x2522B, size: 0x8, addend: 0x0, symName: __ZNKSt3__16vectorINS_4pairINS0_IhNS_9allocatorIhEEEES4_EENS2_IS5_EEE14__annotate_newB8ue170006Em, symObjAddr: 0x11D38, symBinAddr: 0x100015398, symSize: 0xC8 }
  - { offsetInCU: 0x25260, offset: 0x25260, size: 0x8, addend: 0x0, symName: __ZNSt3__129_AllocatorDestroyRangeReverseINS_9allocatorINS_4pairINS_6vectorIhNS1_IhEEEES5_EEEENS_16reverse_iteratorIPS6_EEEC1B8ue170006ERS7_RSA_SD_, symObjAddr: 0x11E4C, symBinAddr: 0x1000154AC, symSize: 0x44 }
  - { offsetInCU: 0x252B7, offset: 0x252B7, size: 0x8, addend: 0x0, symName: __ZNSt3__116allocator_traitsINS_9allocatorINS_4pairINS_6vectorIhNS1_IhEEEES5_EEEEE9constructB8ue170006IS6_JS6_EvEEvRS7_PT_DpOT0_, symObjAddr: 0x11ED8, symBinAddr: 0x100015538, symSize: 0x34 }
  - { offsetInCU: 0x2530E, offset: 0x2530E, size: 0x8, addend: 0x0, symName: __ZNKSt3__116reverse_iteratorIPNS_4pairINS_6vectorIhNS_9allocatorIhEEEES5_EEEdeB8ue170006Ev, symObjAddr: 0x11F30, symBinAddr: 0x100015590, symSize: 0x28 }
  - { offsetInCU: 0x25342, offset: 0x25342, size: 0x8, addend: 0x0, symName: __ZNSt3__116reverse_iteratorIPNS_4pairINS_6vectorIhNS_9allocatorIhEEEES5_EEEppB8ue170006Ev, symObjAddr: 0x11F58, symBinAddr: 0x1000155B8, symSize: 0x20 }
  - { offsetInCU: 0x25368, offset: 0x25368, size: 0x8, addend: 0x0, symName: __ZNSt3__128__exception_guard_exceptionsINS_29_AllocatorDestroyRangeReverseINS_9allocatorINS_4pairINS_6vectorIhNS2_IhEEEES6_EEEENS_16reverse_iteratorIPS7_EEEEE10__completeB8ue170006Ev, symObjAddr: 0x11F78, symBinAddr: 0x1000155D8, symSize: 0x1C }
  - { offsetInCU: 0x2538E, offset: 0x2538E, size: 0x8, addend: 0x0, symName: __ZNSt3__128__exception_guard_exceptionsINS_29_AllocatorDestroyRangeReverseINS_9allocatorINS_4pairINS_6vectorIhNS2_IhEEEES6_EEEENS_16reverse_iteratorIPS7_EEEEED1B8ue170006Ev, symObjAddr: 0x11F94, symBinAddr: 0x1000155F4, symSize: 0x2C }
  - { offsetInCU: 0x253B8, offset: 0x253B8, size: 0x8, addend: 0x0, symName: __ZNSt3__128__exception_guard_exceptionsINS_29_AllocatorDestroyRangeReverseINS_9allocatorINS_4pairINS_6vectorIhNS2_IhEEEES6_EEEENS_16reverse_iteratorIPS7_EEEEEC1B8ue170006ESC_, symObjAddr: 0x11FC0, symBinAddr: 0x100015620, symSize: 0x34 }
  - { offsetInCU: 0x253F1, offset: 0x253F1, size: 0x8, addend: 0x0, symName: __ZNSt3__128__exception_guard_exceptionsINS_29_AllocatorDestroyRangeReverseINS_9allocatorINS_4pairINS_6vectorIhNS2_IhEEEES6_EEEENS_16reverse_iteratorIPS7_EEEEEC2B8ue170006ESC_, symObjAddr: 0x11FF4, symBinAddr: 0x100015654, symSize: 0x30 }
  - { offsetInCU: 0x2542A, offset: 0x2542A, size: 0x8, addend: 0x0, symName: __ZNSt3__129_AllocatorDestroyRangeReverseINS_9allocatorINS_4pairINS_6vectorIhNS1_IhEEEES5_EEEENS_16reverse_iteratorIPS6_EEEC2B8ue170006ERS7_RSA_SD_, symObjAddr: 0x12024, symBinAddr: 0x100015684, symSize: 0x38 }
  - { offsetInCU: 0x25481, offset: 0x25481, size: 0x8, addend: 0x0, symName: __ZNSt3__19allocatorINS_4pairINS_6vectorIhNS0_IhEEEES4_EEE9constructB8ue170006IS5_JS5_EEEvPT_DpOT0_, symObjAddr: 0x1205C, symBinAddr: 0x1000156BC, symSize: 0x30 }
  - { offsetInCU: 0x254DC, offset: 0x254DC, size: 0x8, addend: 0x0, symName: __ZNSt3__119__to_address_helperINS_16reverse_iteratorIPNS_4pairINS_6vectorIhNS_9allocatorIhEEEES6_EEEEvE6__callB8ue170006ERKS9_, symObjAddr: 0x1208C, symBinAddr: 0x1000156EC, symSize: 0x38 }
  - { offsetInCU: 0x254FF, offset: 0x254FF, size: 0x8, addend: 0x0, symName: __ZNKSt3__116reverse_iteratorIPNS_4pairINS_6vectorIhNS_9allocatorIhEEEES5_EEEptB8ue170006Ev, symObjAddr: 0x120C4, symBinAddr: 0x100015724, symSize: 0x24 }
  - { offsetInCU: 0x25525, offset: 0x25525, size: 0x8, addend: 0x0, symName: __ZNSt3__128__exception_guard_exceptionsINS_29_AllocatorDestroyRangeReverseINS_9allocatorINS_4pairINS_6vectorIhNS2_IhEEEES6_EEEENS_16reverse_iteratorIPS7_EEEEED2B8ue170006Ev, symObjAddr: 0x120E8, symBinAddr: 0x100015748, symSize: 0x50 }
  - { offsetInCU: 0x2554F, offset: 0x2554F, size: 0x8, addend: 0x0, symName: __ZNKSt3__129_AllocatorDestroyRangeReverseINS_9allocatorINS_4pairINS_6vectorIhNS1_IhEEEES5_EEEENS_16reverse_iteratorIPS6_EEEclB8ue170006Ev, symObjAddr: 0x12138, symBinAddr: 0x100015798, symSize: 0xB4 }
  - { offsetInCU: 0x25576, offset: 0x25576, size: 0x8, addend: 0x0, symName: __ZNSt3__116reverse_iteratorINS0_IPNS_4pairINS_6vectorIhNS_9allocatorIhEEEES5_EEEEEC1B8ue170006ES8_, symObjAddr: 0x1225C, symBinAddr: 0x1000158BC, symSize: 0x3C }
  - { offsetInCU: 0x255AE, offset: 0x255AE, size: 0x8, addend: 0x0, symName: __ZNSt3__116reverse_iteratorINS0_IPNS_4pairINS_6vectorIhNS_9allocatorIhEEEES5_EEEEEppB8ue170006Ev, symObjAddr: 0x1231C, symBinAddr: 0x10001597C, symSize: 0x30 }
  - { offsetInCU: 0x255D4, offset: 0x255D4, size: 0x8, addend: 0x0, symName: __ZNKSt3__116reverse_iteratorINS0_IPNS_4pairINS_6vectorIhNS_9allocatorIhEEEES5_EEEEE4baseB8ue170006Ev, symObjAddr: 0x1234C, symBinAddr: 0x1000159AC, symSize: 0x24 }
  - { offsetInCU: 0x255FF, offset: 0x255FF, size: 0x8, addend: 0x0, symName: __ZNSt3__119__to_address_helperINS_16reverse_iteratorINS1_IPNS_4pairINS_6vectorIhNS_9allocatorIhEEEES6_EEEEEEvE6__callB8ue170006ERKSA_, symObjAddr: 0x12370, symBinAddr: 0x1000159D0, symSize: 0x38 }
  - { offsetInCU: 0x25622, offset: 0x25622, size: 0x8, addend: 0x0, symName: __ZNKSt3__116reverse_iteratorINS0_IPNS_4pairINS_6vectorIhNS_9allocatorIhEEEES5_EEEEEptB8ue170006Ev, symObjAddr: 0x123A8, symBinAddr: 0x100015A08, symSize: 0x24 }
  - { offsetInCU: 0x25648, offset: 0x25648, size: 0x8, addend: 0x0, symName: __ZNKSt3__116reverse_iteratorINS0_IPNS_4pairINS_6vectorIhNS_9allocatorIhEEEES5_EEEEEdeB8ue170006Ev, symObjAddr: 0x123CC, symBinAddr: 0x100015A2C, symSize: 0x34 }
  - { offsetInCU: 0x2567C, offset: 0x2567C, size: 0x8, addend: 0x0, symName: __ZNSt3__116reverse_iteratorIPNS_4pairINS_6vectorIhNS_9allocatorIhEEEES5_EEEmmB8ue170006Ev, symObjAddr: 0x12400, symBinAddr: 0x100015A60, symSize: 0x20 }
  - { offsetInCU: 0x256A2, offset: 0x256A2, size: 0x8, addend: 0x0, symName: __ZNSt3__116reverse_iteratorINS0_IPNS_4pairINS_6vectorIhNS_9allocatorIhEEEES5_EEEEEC2B8ue170006ES8_, symObjAddr: 0x12420, symBinAddr: 0x100015A80, symSize: 0x2C }
  - { offsetInCU: 0x256DA, offset: 0x256DA, size: 0x8, addend: 0x0, symName: __ZNSt3__116reverse_iteratorIPNS_4pairINS_6vectorIhNS_9allocatorIhEEEES5_EEEC2B8ue170006ES7_, symObjAddr: 0x1244C, symBinAddr: 0x100015AAC, symSize: 0x28 }
  - { offsetInCU: 0x25712, offset: 0x25712, size: 0x8, addend: 0x0, symName: __ZNSt3__114__split_bufferINS_4pairINS_6vectorIhNS_9allocatorIhEEEES5_EERNS3_IS6_EEED2Ev, symObjAddr: 0x12474, symBinAddr: 0x100015AD4, symSize: 0x8C }
  - { offsetInCU: 0x2573E, offset: 0x2573E, size: 0x8, addend: 0x0, symName: __ZNSt3__114__split_bufferINS_4pairINS_6vectorIhNS_9allocatorIhEEEES5_EERNS3_IS6_EEE5clearB8ue170006Ev, symObjAddr: 0x12500, symBinAddr: 0x100015B60, symSize: 0x28 }
  - { offsetInCU: 0x25764, offset: 0x25764, size: 0x8, addend: 0x0, symName: __ZNKSt3__114__split_bufferINS_4pairINS_6vectorIhNS_9allocatorIhEEEES5_EERNS3_IS6_EEE8capacityB8ue170006Ev, symObjAddr: 0x12528, symBinAddr: 0x100015B88, symSize: 0x40 }
  - { offsetInCU: 0x2578A, offset: 0x2578A, size: 0x8, addend: 0x0, symName: __ZNSt3__114__split_bufferINS_4pairINS_6vectorIhNS_9allocatorIhEEEES5_EERNS3_IS6_EEE17__destruct_at_endB8ue170006EPS6_, symObjAddr: 0x12568, symBinAddr: 0x100015BC8, symSize: 0x2C }
  - { offsetInCU: 0x257BE, offset: 0x257BE, size: 0x8, addend: 0x0, symName: __ZNSt3__114__split_bufferINS_4pairINS_6vectorIhNS_9allocatorIhEEEES5_EERNS3_IS6_EEE17__destruct_at_endB8ue170006EPS6_NS_17integral_constantIbLb0EEE, symObjAddr: 0x12594, symBinAddr: 0x100015BF4, symSize: 0x80 }
  - { offsetInCU: 0x257FE, offset: 0x257FE, size: 0x8, addend: 0x0, symName: __ZNKSt3__114__split_bufferINS_4pairINS_6vectorIhNS_9allocatorIhEEEES5_EERNS3_IS6_EEE9__end_capB8ue170006Ev, symObjAddr: 0x12614, symBinAddr: 0x100015C74, symSize: 0x28 }
  - { offsetInCU: 0x25824, offset: 0x25824, size: 0x8, addend: 0x0, symName: __ZNKSt3__117__compressed_pairIPNS_4pairINS_6vectorIhNS_9allocatorIhEEEES5_EERNS3_IS6_EEE5firstB8ue170006Ev, symObjAddr: 0x1263C, symBinAddr: 0x100015C9C, symSize: 0x24 }
  - { offsetInCU: 0x2584A, offset: 0x2584A, size: 0x8, addend: 0x0, symName: __ZNSt3__16vectorIhNS_9allocatorIhEEE19__copy_assign_allocB8ue170006ERKS3_, symObjAddr: 0x12660, symBinAddr: 0x100015CC0, symSize: 0x2C }
  - { offsetInCU: 0x2587F, offset: 0x2587F, size: 0x8, addend: 0x0, symName: __ZNSt3__16vectorIhNS_9allocatorIhEEE6assignIPhLi0EEEvT_S6_, symObjAddr: 0x1268C, symBinAddr: 0x100015CEC, symSize: 0x5C }
  - { offsetInCU: 0x258D4, offset: 0x258D4, size: 0x8, addend: 0x0, symName: __ZNSt3__16vectorIhNS_9allocatorIhEEE19__copy_assign_allocB8ue170006ERKS3_NS_17integral_constantIbLb0EEE, symObjAddr: 0x126E8, symBinAddr: 0x100015D48, symSize: 0x14 }
  - { offsetInCU: 0x25910, offset: 0x25910, size: 0x8, addend: 0x0, symName: __ZNSt3__16vectorIhNS_9allocatorIhEEE18__assign_with_sizeB8ue170006IPhS5_EEvT_T0_l, symObjAddr: 0x126FC, symBinAddr: 0x100015D5C, symSize: 0x164 }
  - { offsetInCU: 0x259C0, offset: 0x259C0, size: 0x8, addend: 0x0, symName: __ZNSt3__16vectorIhNS_9allocatorIhEEE17__destruct_at_endB8ue170006EPh, symObjAddr: 0x128C0, symBinAddr: 0x100015F20, symSize: 0x4C }
  - { offsetInCU: 0x25A04, offset: 0x25A04, size: 0x8, addend: 0x0, symName: __ZNSt3__112basic_stringIcNS_11char_traitsIcEENS_9allocatorIcEEEC2B8ue170006Ev, symObjAddr: 0x129A0, symBinAddr: 0x100016000, symSize: 0x48 }
  - { offsetInCU: 0x25A2E, offset: 0x25A2E, size: 0x8, addend: 0x0, symName: __ZNSt3__112basic_stringIcNS_11char_traitsIcEENS_9allocatorIcEEE14__default_initB8ue170006Ev, symObjAddr: 0x129E8, symBinAddr: 0x100016048, symSize: 0x40 }
  - { offsetInCU: 0x25ADD, offset: 0x25ADD, size: 0x8, addend: 0x0, symName: __ZNKSt3__113basic_istreamIcNS_11char_traitsIcEEE6sentrycvbB8ue170006Ev, symObjAddr: 0x12C60, symBinAddr: 0x1000162C0, symSize: 0x1C }
  - { offsetInCU: 0x25B03, offset: 0x25B03, size: 0x8, addend: 0x0, symName: __ZNSt3__112basic_stringIcNS_11char_traitsIcEENS_9allocatorIcEEE5clearB8ue170006Ev, symObjAddr: 0x12C7C, symBinAddr: 0x1000162DC, symSize: 0x78 }
  - { offsetInCU: 0x25B2B, offset: 0x25B2B, size: 0x8, addend: 0x0, symName: __ZNSt3__115basic_streambufIcNS_11char_traitsIcEEE6sbumpcB8ue170006Ev, symObjAddr: 0x12CF4, symBinAddr: 0x100016354, symSize: 0x78 }
  - { offsetInCU: 0x25B51, offset: 0x25B51, size: 0x8, addend: 0x0, symName: __ZNSt3__111char_traitsIcE12to_char_typeB8ue170006Ei, symObjAddr: 0x12D6C, symBinAddr: 0x1000163CC, symSize: 0x18 }
  - { offsetInCU: 0x25B74, offset: 0x25B74, size: 0x8, addend: 0x0, symName: __ZNSt3__111char_traitsIcE2eqEcc, symObjAddr: 0x12D84, symBinAddr: 0x1000163E4, symSize: 0x28 }
  - { offsetInCU: 0x25BA5, offset: 0x25BA5, size: 0x8, addend: 0x0, symName: __ZNKSt3__112basic_stringIcNS_11char_traitsIcEENS_9allocatorIcEEE8max_sizeB8ue170006Ev, symObjAddr: 0x12DAC, symBinAddr: 0x10001640C, symSize: 0xAC }
  - { offsetInCU: 0x25BF7, offset: 0x25BF7, size: 0x8, addend: 0x0, symName: __ZNSt3__18ios_base18__setstate_nothrowB8ue170006Ej, symObjAddr: 0x12E58, symBinAddr: 0x1000164B8, symSize: 0x64 }
  - { offsetInCU: 0x25C2C, offset: 0x25C2C, size: 0x8, addend: 0x0, symName: __ZNKSt3__19basic_iosIcNS_11char_traitsIcEEE10exceptionsB8ue170006Ev, symObjAddr: 0x12EBC, symBinAddr: 0x10001651C, symSize: 0x24 }
  - { offsetInCU: 0x25C52, offset: 0x25C52, size: 0x8, addend: 0x0, symName: __ZNSt3__111char_traitsIcE6assignB8ue170006ERcRKc, symObjAddr: 0x12EE0, symBinAddr: 0x100016540, symSize: 0x24 }
  - { offsetInCU: 0x25C83, offset: 0x25C83, size: 0x8, addend: 0x0, symName: __ZNSt3__112basic_stringIcNS_11char_traitsIcEENS_9allocatorIcEEE15__set_long_sizeB8ue170006Em, symObjAddr: 0x12F04, symBinAddr: 0x100016564, symSize: 0x38 }
  - { offsetInCU: 0x25CB8, offset: 0x25CB8, size: 0x8, addend: 0x0, symName: __ZNSt3__112basic_stringIcNS_11char_traitsIcEENS_9allocatorIcEEE16__set_short_sizeB8ue170006Em, symObjAddr: 0x12F3C, symBinAddr: 0x10001659C, symSize: 0x78 }
  - { offsetInCU: 0x25CED, offset: 0x25CED, size: 0x8, addend: 0x0, symName: __ZNSt3__111char_traitsIcE11to_int_typeB8ue170006Ec, symObjAddr: 0x12FB4, symBinAddr: 0x100016614, symSize: 0x14 }
  - { offsetInCU: 0x25D1B, offset: 0x25D1B, size: 0x8, addend: 0x0, symName: __ZNSt3__116allocator_traitsINS_9allocatorIcEEE8max_sizeB8ue170006IS2_vEEmRKS2_, symObjAddr: 0x12FC8, symBinAddr: 0x100016628, symSize: 0x24 }
  - { offsetInCU: 0x25D49, offset: 0x25D49, size: 0x8, addend: 0x0, symName: __ZNKSt3__112basic_stringIcNS_11char_traitsIcEENS_9allocatorIcEEE7__allocB8ue170006Ev, symObjAddr: 0x12FEC, symBinAddr: 0x10001664C, symSize: 0x24 }
  - { offsetInCU: 0x25D6F, offset: 0x25D6F, size: 0x8, addend: 0x0, symName: __ZNSt3__114numeric_limitsImE3maxB8ue170006Ev, symObjAddr: 0x13010, symBinAddr: 0x100016670, symSize: 0x14 }
  - { offsetInCU: 0x25D83, offset: 0x25D83, size: 0x8, addend: 0x0, symName: __ZNKSt3__19allocatorIcE8max_sizeB8ue170006Ev, symObjAddr: 0x13024, symBinAddr: 0x100016684, symSize: 0x14 }
  - { offsetInCU: 0x25DA9, offset: 0x25DA9, size: 0x8, addend: 0x0, symName: __ZNKSt3__117__compressed_pairINS_12basic_stringIcNS_11char_traitsIcEENS_9allocatorIcEEE5__repES5_E6secondB8ue170006Ev, symObjAddr: 0x13038, symBinAddr: 0x100016698, symSize: 0x24 }
  - { offsetInCU: 0x25DCF, offset: 0x25DCF, size: 0x8, addend: 0x0, symName: __ZNKSt3__122__compressed_pair_elemINS_9allocatorIcEELi1ELb1EE5__getB8ue170006Ev, symObjAddr: 0x1305C, symBinAddr: 0x1000166BC, symSize: 0x14 }
  - { offsetInCU: 0x25DF5, offset: 0x25DF5, size: 0x8, addend: 0x0, symName: __ZNSt3__123__libcpp_numeric_limitsImLb1EE3maxB8ue170006Ev, symObjAddr: 0x13070, symBinAddr: 0x1000166D0, symSize: 0x8 }
  - { offsetInCU: 0x25E09, offset: 0x25E09, size: 0x8, addend: 0x0, symName: __ZNKSt3__18ios_base10exceptionsB8ue170006Ev, symObjAddr: 0x13078, symBinAddr: 0x1000166D8, symSize: 0x18 }
...
